L166 LINKER/LOCATER V5.25                                                               04/03/2017  17:18:59  PAGE 1


L166 LINKER/LOCATER V5.25, INVOKED BY:
C:\KEIL\C166\BIN\L166.EXE START_V2.obj, driver.obj, main.obj, process.obj, asmbsl.obj, protocol.obj, can.obj, settings.o
>> bj, flash.obj, system.obj TO BDMG_FRM IXREF CLASSES (ICODE (0X0-0X7FFF), NCODE (0X20000-0X2FFFF), FCONST (0X0-0X7FFF,
>>  0X18000-0X4FFFF), HCONST (0X0-0X7FFF, 0X18000-0X4FFFF), XCONST (0X0-0X7FFF, 0X18000-0X4FFFF), NCONST (0X4000-0X7FFF)
>> , RESERVE (0X022000-0X022500), NDATA (0X050000-0X051FFF), NDATA0 (0X050000-0X051FFF), SDATA (0XF600-0XFDFF), SDATA0 (
>> 0XF600-0XFDFF), IDATA (0XF600-0XFDFF), IDATA0 (0XF600-0XFDFF), FDATA (0XF600-0XFDFF), FDATA0 (0XF600-0XFDFF), HDATA (
>> 0XF600-0XFDFF), HDATA0 (0XF600-0XFDFF), XDATA (0XF600-0XFDFF), XDATA0 (0XF600-0XFDFF)) CINITTAB (0X18000-0X4FFFF)


CPU TYPE:     C167 or derivative
CPU MODE:     SEGMENTED
MEMORY MODEL: SMALL WITH FLOATING POINT ARITHMETIC


INPUT MODULES INCLUDED:
  START_V2.obj (?C_STARTUP)
         COMMENT TYPE 128: A166 V5.36.0.1
  driver.obj (DRIVER)
         COMMENT TYPE 128: A166 V5.36.0.1
  main.obj (MAIN)
         COMMENT TYPE 128: C166 V7.53.0.0
  process.obj (PROCESS)
         COMMENT TYPE 128: C166 V7.53.0.0
  asmbsl.obj (ASMBSL)
         COMMENT TYPE 128: A166 V5.36.0.1
  protocol.obj (PROTOCOL)
         COMMENT TYPE 128: C166 V7.53.0.0
  can.obj (CAN)
         COMMENT TYPE 128: C166 V7.53.0.0
  settings.obj (SETTINGS)
         COMMENT TYPE 128: C166 V7.53.0.0
  flash.obj (FLASH)
         COMMENT TYPE 128: C166 V7.53.0.0
  system.obj (SYSTEM)
         COMMENT TYPE 128: C166 V7.53.0.0
  C:\KEIL\C166\LIB\C167FPS.LIB (?C_FPADD)
         COMMENT TYPE 128: A166 V5.33
  C:\KEIL\C166\LIB\C167FPS.LIB (?C_FPMUL)
         COMMENT TYPE 128: A166 V5.33
  C:\KEIL\C166\LIB\C167FPS.LIB (?C_FPDIV)
         COMMENT TYPE 128: A166 V5.33
  C:\KEIL\C166\LIB\C167FPS.LIB (?C_CASTF)
         COMMENT TYPE 128: A166 V5.33
  C:\KEIL\C166\LIB\C167FPS.LIB (?C_FCAST)
         COMMENT TYPE 128: A166 V5.33
  C:\KEIL\C166\LIB\C167FPS.LIB (?C_FPCMP)
         COMMENT TYPE 128: A166 V5.33
  C:\KEIL\C166\LIB\C167FPS.LIB (?C_FPGETOPN)
         COMMENT TYPE 128: A166 V5.33
  C:\KEIL\C166\LIB\C167FPS.LIB (?C_FPEQUATES)
         COMMENT TYPE 128: A166 V5.33
  C:\KEIL\C166\LIB\C167S.LIB (?C_PCASTS)
         COMMENT TYPE 128: A166 V5.33
  C:\KEIL\C166\LIB\C167S.LIB (?C_SCASTP)
         COMMENT TYPE 128: A166 V5.33
  C:\KEIL\C166\LIB\C167S.LIB (?C_HCASTS)
         COMMENT TYPE 128: A166 V5.33
  C:\KEIL\C166\LIB\C167S.LIB (MEMCPY)
L166 LINKER/LOCATER V5.25                                                             04/03/2017  17:18:59  PAGE 2


         COMMENT TYPE 128: A166 V5.33
  C:\KEIL\C166\LIB\C167S.LIB (MEMSET)
         COMMENT TYPE 128: C166 V7.04
  C:\KEIL\C166\LIB\C167S.LIB (INIT_MEM)
         COMMENT TYPE 128: C166 V7.04
  C:\KEIL\C166\LIB\C167S.LIB (FREE)
         COMMENT TYPE 128: C166 V7.04
  C:\KEIL\C166\LIB\C167S.LIB (MALLOC)
         COMMENT TYPE 128: C166 V7.04
  C:\KEIL\C166\LIB\C167S.LIB (XMEMSET)
         COMMENT TYPE 128: C166 V7.04


INTERRUPT PROCEDURES OF MODULE:  BDMG_FRM (?C_STARTUP)


INTERRUPT PROCEDURE                 INT  INTERRUPT NAME
=======================================================
?C_RESET                              0  RESET
TIMER7IC                             61  ---  
CC28IO                               60  ---  
TIMER8IC                             62  ---  
CAPCOM30IO                           69  ---  
TIMER1IC                             33  ---  
CAPCOM4IC                            20  ---  
Process_EXIN1                        24  ---  
Process_EXIN2                        25  ---  
Process_EXIN3                        26  ---  
Process_EXIN4                        27  ---  
Process_EXIN5                        28  ---  
Process_EXIN6                        29  ---  
Process_EXIN7                        30  ---  
Process_EXIN8                        31  ---  
Process_MainProc                     32  ---  
CANINTERRUPT                        103  ---  
CAN_Interrupt0                       84  ---  
CAN_Interrupt1                       85  ---  
CAN_Interrupt2                       86  ---  
CAN_Interrupt3                       87  ---  


MEMORY MAP OF MODULE:  BDMG_FRM (?C_STARTUP)


START     STOP      LENGTH    TYPE  RTYP  ALIGN  TGR  GRP  COMB  CLASS   SECTION NAME
=====================================================================================
000000H   000003H   000004H   ---   ---   ---    ---  ---  ---   * INTVECTOR TABLE *
000050H   000053H   000004H   ---   ---   ---    ---  ---  ---   * INTVECTOR TABLE *
000060H   000087H   000028H   ---   ---   ---    ---  ---  ---   * INTVECTOR TABLE *
0000F0H   0000FBH   00000CH   ---   ---   ---    ---  ---  ---   * INTVECTOR TABLE *
000114H   000117H   000004H   ---   ---   ---    ---  ---  ---   * INTVECTOR TABLE *
000150H   00015FH   000010H   ---   ---   ---    ---  ---  ---   * INTVECTOR TABLE *
00019CH   00019FH   000004H   ---   ---   ---    ---  ---  ---   * INTVECTOR TABLE *
0001A0H   000281H   0000E2H   CODE  REL   WORD   ---  ---  PRIV  ICODE   DRIVERSECTION
000282H   000313H   000092H   CODE  REL   WORD   ---  ---  PRIV  ICODE   ?C_STARTUP_CODE
004000H   004008H   000009H   DATA  REL   WORD   ---    3  PUBL  NCONST  ?NC?PROTOCOL
00400AH   00400DH   000004H   DATA  REL   WORD   ---    3  PUBL  NCONST  ?NC?MAIN
L166 LINKER/LOCATER V5.25                                                             04/03/2017  17:18:59  PAGE 3


00F600H   00F603H   000004H   DATA  REL   WORD   ---  ---  PUBL  FDATA0  ?FD0?INIT_MEM
00FA00H   00FBFFH   000200H   ---   ---   ---    ---  ---  ---   * SYSTEM STACK *
00FC00H   00FC1FH   000020H   DATA  ---   BYTE   ---  ---  ---   *REG*   ?C_MAINREGISTERS
018000H   018017H   000018H   XDATA REL   WORD   ---  ---  GLOB  ---     ?C_INITSEC
018018H   018033H   00001CH   CONST ABS   WORD   ---  ---  PRIV  ---     ?C_CLRMEMSEC
020000H   02075DH   00075EH   CODE  REL   WORD   ---    2  PUBL  NCODE   ?PR?PROCESS
02075EH   020DD3H   000676H   CODE  REL   WORD   ---    2  PUBL  NCODE   ?PR?PROTOCOL
020DD4H   02127DH   0004AAH   CODE  REL   WORD   ---    2  PUBL  NCODE   ?PR?CAN
02127EH   0216C5H   000448H   CODE  REL   WORD   ---    2  PUBL  NCODE   ?C_LIB_CODE
0216C6H   021861H   00019CH   CODE  REL   WORD   ---    2  PUBL  NCODE   ?PR?SETTINGS
021862H   0219DFH   00017EH   CODE  REL   WORD   ---    2  PUBL  NCODE   ?PR?FLASH
0219E0H   021AC9H   0000EAH   CODE  REL   WORD   ---    2  PUBL  NCODE   ?PR?FREE
021ACAH   021B9BH   0000D2H   CODE  REL   WORD   ---    2  PUBL  NCODE   ?PR?MAIN
021B9CH   021C51H   0000B6H   CODE  REL   WORD   ---    2  PUBL  NCODE   ?PR?SYSTEM
021C52H   021CCFH   00007EH   CODE  REL   WORD   ---    2  PUBL  NCODE   ?PR?MALLOC
021CD0H   021CF1H   000022H   CODE  REL   WORD   ---    2  PUBL  NCODE   ?PR?INIT_MEM
021CF2H   021D11H   000020H   CODE  REL   WORD   ---    2  PUBL  NCODE   ?PR?XMEMSET
021D12H   021D23H   000012H   CODE  REL   WORD   ---    2  PUBL  NCODE   ?PR?MEMSET
021D24H   021D31H   00000EH   CODE  REL   WORD   ---    2  PRIV  NCODE   ?PR?MEMCPY
04E000H   04E33FH   000340H   CODE  ABS   AT..   ---  ---  PRIV  ---     BSLSECTION
04F000H   04F0C9H   0000CAH   CODE  ABS   AT..   ---  ---  PRIV  ---     BSLINTERRUPT
050000H   0503FFH   000400H   DATA  REL   WORD   ---    1  PUBL  NDATA   ?C_USERSTACK
050400H   0513FFH   001000H   DATA  REL   WORD   ---    1  PUBL  NDATA0  ?ND0?MAIN
051400H   051489H   00008AH   DATA  REL   WORD   ---    1  PUBL  NDATA0  ?ND0?PROCESS
05148AH   0514D3H   00004AH   DATA  REL   WORD   ---    1  PUBL  NDATA0  ?ND0?SETTINGS
0514D4H   0514D8H   000005H   DATA  REL   WORD   ---    1  PUBL  NDATA0  ?ND0?PROTOCOL
0514D9H   0514D9H   000001H   DATA  REL   BYTE   ---    1  PUBL  NDATA0  ?ND0?CAN



GROUP LIST OF MODULE:  BDMG_FRM (?C_STARTUP)


GROUP NAME                           TYPE  TGR  GRP  CLASS       SECTION NAME
=============================================================================
NDATA                                DATA  ---    1  NDATA       ?C_USERSTACK
                                                     NDATA0      ?ND0?MAIN
                                                     NDATA0      ?ND0?PROCESS
                                                     NDATA0      ?ND0?PROTOCOL
                                                     NDATA0      ?ND0?CAN
                                                     NDATA0      ?ND0?SETTINGS

NCODE                                CODE  ---    2  NCODE       ?PR?MAIN
                                                     NCODE       ?PR?PROCESS
                                                     NCODE       ?PR?PROTOCOL
                                                     NCODE       ?PR?CAN
                                                     NCODE       ?PR?SETTINGS
                                                     NCODE       ?PR?FLASH
                                                     NCODE       ?PR?SYSTEM
                                                     NCODE       ?C_LIB_CODE
                                                     NCODE       ?PR?MEMCPY
                                                     NCODE       ?PR?MEMSET
                                                     NCODE       ?PR?INIT_MEM
                                                     NCODE       ?PR?FREE
                                                     NCODE       ?PR?MALLOC
                                                     NCODE       ?PR?XMEMSET

L166 LINKER/LOCATER V5.25                                                             04/03/2017  17:18:59  PAGE 4


NCONST                               DATA  ---    3  NCONST      ?NC?MAIN
                                                     NCONST      ?NC?PROTOCOL




PUBLIC SYMBOLS OF MODULE:  BDMG_FRM (?C_STARTUP)


      VALUE       PUBLIC SYMBOL NAME               REP   TGR  CLASS   SECTION
      =======================================================================
      0214C2H     ?C_CASTF                         LABEL ---  NCODE   ?C_LIB_CODE
      018018H     ?C_CLRMEMSECSTART                VAR   ---  ---     ---
      000033H     ?C_DPPRECISION                   CONST ---  ---     ---
      02151EH     ?C_FCAST                         LABEL ---  NCODE   ?C_LIB_CODE
      021282H     ?C_FPADD                         LABEL ---  NCODE   ?C_LIB_CODE
      021564H     ?C_FPCMP                         LABEL ---  NCODE   ?C_LIB_CODE
      0213FAH     ?C_FPDIV                         LABEL ---  NCODE   ?C_LIB_CODE
      0215E6H     ?C_FPGETOPN                      LABEL ---  NCODE   ?C_LIB_CODE
      021614H     ?C_FPINFRSL                      LABEL ---  NCODE   ?C_LIB_CODE
      021366H     ?C_FPMUL                         LABEL ---  NCODE   ?C_LIB_CODE
      02160CH     ?C_FPNANRSL                      LABEL ---  NCODE   ?C_LIB_CODE
      021636H     ?C_FPNOERR                       LABEL ---  NCODE   ?C_LIB_CODE
      021620H     ?C_FPOPRSL                       LABEL ---  NCODE   ?C_LIB_CODE
      000015H     ?C_FPPRECISION                   CONST ---  ---     ---
      02162CH     ?C_FPRSLNR                       LABEL ---  NCODE   ?C_LIB_CODE
      02127EH     ?C_FPSUB                         LABEL ---  NCODE   ?C_LIB_CODE
      021644H     ?C_FPUNFRS                       LABEL ---  NCODE   ?C_LIB_CODE
      0212C0H     ?C_FPXSUB                        LABEL ---  NCODE   ?C_LIB_CODE
      021644H     ?C_FPZERRSL                      LABEL ---  NCODE   ?C_LIB_CODE
      021698H     ?C_HCASTS                        LABEL ---  NCODE   ?C_LIB_CODE
      018000H     ?C_INITSECSTART                  VAR   ---  ---     ---
      000000H     ?C_NCONSTBASE                    CONST ---  ---     ---
      000000H     ?C_NCONSTBASESEG                 CONST ---  ---     ---
      048000H     ?C_NDATABASE                     CONST ---  ---     ---
      000004H     ?C_NDATABASESEG                  CONST ---  ---     ---
      000000H     ?C_PAGEDPP0                      CONST ---  ---     ---
      000001H     ?C_PAGEDPP1                      CONST ---  ---     ---
      000014H     ?C_PAGEDPP2                      CONST ---  ---     ---
      02164AH     ?C_PCASTS                        LABEL ---  NCODE   ?C_LIB_CODE
      02166EH     ?C_SCASTP                        LABEL ---  NCODE   ?C_LIB_CODE
      000282H     ?C_STARTUP                       LABEL ---  ICODE   ?C_STARTUP_CODE
      00FA00H     ?C_SYSSTKBOT                     CONST ---  ---     ---
      050000H     ?C_USRSTKBOT                     VAR   ---  NDATA   ?C_USERSTACK
      020FC6H     CAN_Init                         LABEL ---  NCODE   ?PR?CAN
      020DD4H     CAN_Interrupt0                   LABEL ---  NCODE   ?PR?CAN
      020DE0H     CAN_Interrupt1                   LABEL ---  NCODE   ?PR?CAN
      020E80H     CAN_Interrupt2                   LABEL ---  NCODE   ?PR?CAN
      020E82H     CAN_Interrupt3                   LABEL ---  NCODE   ?PR?CAN
      02120EH     CAN_SendMessage                  LABEL ---  NCODE   ?PR?CAN
      021862H     FLASH_EraseSector                LABEL ---  NCODE   ?PR?FLASH
      0219BAH     FLASH_FSRControl                 LABEL ---  NCODE   ?PR?FLASH
      021930H     FLASH_WriteWord                  LABEL ---  NCODE   ?PR?FLASH
      05148AH     MainSettings                     VAR   ---  NDATA0  ?ND0?SETTINGS
      0205F8H     Process_CalculateCountingRate    LABEL ---  NCODE   ?PR?PROCESS
      0203B0H     Process_CalculateCurrentDoseRate LABEL ---  NCODE   ?PR?PROCESS
      02005CH     Process_EXIN1                    LABEL ---  NCODE   ?PR?PROCESS
L166 LINKER/LOCATER V5.25                                                             04/03/2017  17:18:59  PAGE 5


      020068H     Process_EXIN2                    LABEL ---  NCODE   ?PR?PROCESS
      020074H     Process_EXIN3                    LABEL ---  NCODE   ?PR?PROCESS
      020080H     Process_EXIN4                    LABEL ---  NCODE   ?PR?PROCESS
      02008CH     Process_EXIN5                    LABEL ---  NCODE   ?PR?PROCESS
      020098H     Process_EXIN6                    LABEL ---  NCODE   ?PR?PROCESS
      0200A4H     Process_EXIN7                    LABEL ---  NCODE   ?PR?PROCESS
      0200AEH     Process_EXIN8                    LABEL ---  NCODE   ?PR?PROCESS
      02004EH     Process_Group1IntOff             LABEL ---  NCODE   ?PR?PROCESS
      020058H     Process_Group2IntOff             LABEL ---  NCODE   ?PR?PROCESS
      02005AH     Process_Group3IntOff             LABEL ---  NCODE   ?PR?PROCESS
      020000H     Process_Initializetion           LABEL ---  NCODE   ?PR?PROCESS
      0200B8H     Process_MainProc                 LABEL ---  NCODE   ?PR?PROCESS
      0206C2H     Process_Start                    LABEL ---  NCODE   ?PR?PROCESS
      020748H     Process_Stop                     LABEL ---  NCODE   ?PR?PROCESS
      020808H     Protocol_ConfirmStopData         LABEL ---  NCODE   ?PR?PROTOCOL
      0208A2H     Protocol_CounterMsg              LABEL ---  NCODE   ?PR?PROTOCOL
      020916H     Protocol_DoseRateMsg             LABEL ---  NCODE   ?PR?PROTOCOL
      02077CH     Protocol_GetAutoModeState        LABEL ---  NCODE   ?PR?PROTOCOL
      0207B4H     Protocol_GetDataMsg              LABEL ---  NCODE   ?PR?PROTOCOL
      020776H     Protocol_GetRangeValue           LABEL ---  NCODE   ?PR?PROTOCOL
      020826H     Protocol_HeaderDataMsg           LABEL ---  NCODE   ?PR?PROTOCOL
      02075EH     Protocol_Initialization          LABEL ---  NCODE   ?PR?PROTOCOL
      020978H     Protocol_ReceiveMsgCallback      LABEL ---  NCODE   ?PR?PROTOCOL
      0207EAH     Protocol_ResponseDataPackaje     LABEL ---  NCODE   ?PR?PROTOCOL
      020784H     Protocol_SendDataMsg             LABEL ---  NCODE   ?PR?PROTOCOL
      02076EH     Protocol_SetRangeValue           LABEL ---  NCODE   ?PR?PROTOCOL
      020958H     Protocol_StartMsg                LABEL ---  NCODE   ?PR?PROTOCOL
      020782H     Protocol_TransmitMsgCallback     LABEL ---  NCODE   ?PR?PROTOCOL
      020968H     Protocol_WDTRestartMsg           LABEL ---  NCODE   ?PR?PROTOCOL
      000000H     RESET                            INTNO ---  ---     ---
      0216D4H     SETTINGS_Default                 LABEL ---  NCODE   ?PR?SETTINGS
      0216C6H     SETTINGS_Init                    LABEL ---  NCODE   ?PR?SETTINGS
      0217FAH     SETTINGS_Load                    LABEL ---  NCODE   ?PR?SETTINGS
      021788H     SETTINGS_Save                    LABEL ---  NCODE   ?PR?SETTINGS
      00400AH     SerialNumberBD                   VAR   ---  NCONST  ?NC?MAIN
      021C36H     System_Delay                     LABEL ---  NCODE   ?PR?SYSTEM
      021B9CH     System_RAMTest                   LABEL ---  NCODE   ?PR?SYSTEM
      021C4CH     System_Reset                     LABEL ---  NCODE   ?PR?SYSTEM
      00F600H     __mp__                           VAR   ---  FDATA0  ?FD0?INIT_MEM
      0514D6H     autoMode                         VAR   ---  NDATA0  ?ND0?PROTOCOL
      051488H     dynamicMode                      VAR   ---  NDATA0  ?ND0?PROCESS
      0219E0H     free                             LABEL ---  NCODE   ?PR?FREE
      021CD0H     init_mempool                     LABEL ---  NCODE   ?PR?INIT_MEM
      004000H     mResetResponse                   VAR   ---  NCONST  ?NC?PROTOCOL
      004008H     mWDTRestartResponse              VAR   ---  NCONST  ?NC?PROTOCOL
      021ACAH     main                             LABEL ---  NCODE   ?PR?MAIN
      021C52H     malloc                           LABEL ---  NCODE   ?PR?MALLOC
      050400H     malloc_mempool                   VAR   ---  NDATA0  ?ND0?MAIN
      021D24H     memcpy                           LABEL ---  NCODE   ?PR?MEMCPY
      021D12H     memset                           LABEL ---  NCODE   ?PR?MEMSET
      0514D8H     rangeValue                       VAR   ---  NDATA0  ?ND0?PROTOCOL
      051400H     sensorCnt                        VAR   ---  NDATA0  ?ND0?PROCESS
      051489H     sliderCounter                    VAR   ---  NDATA0  ?ND0?PROCESS
      051410H     sliderQuery                      VAR   ---  NDATA0  ?ND0?PROCESS
      0514D4H     timeSpan                         VAR   ---  NDATA0  ?ND0?PROTOCOL
      021CF2H     xmemset                          LABEL ---  NCODE   ?PR?XMEMSET

L166 LINKER/LOCATER V5.25                                                             04/03/2017  17:18:59  PAGE 6




SYMBOL TABLE OF MODULE:  BDMG_FRM (?C_STARTUP)

      VALUE       TYPE      REP       LENGTH  TGR   SYMBOL NAME
      =========================================================
      000282H     PUBLIC    LABEL     ---     ---   ?C_STARTUP
      050000H     PUBLIC    VAR       ---     ---   ?C_USRSTKBOT
      00FA00H     PUBLIC    CONST     ---     ---   ?C_SYSSTKBOT
      000000H     GLOBAL    INTNO     ---     ---   RESET
      000000H     SYMBOL    RBANK     ---     ---   ?C_MAINREGISTERS
      050400H     SYMBOL    VAR       ---     ---   ?C_USERSTKTOP
      006007H     SYMBOL    CONST     ---     ---   ADDR2
      00FE1AH     SYMBOL    SFR       ---     ---   ADDRSEL2
      000000H     SYMBOL    CONST     ---     ---   BCON0H
      00002EH     SYMBOL    CONST     ---     ---   BCON0L
      00C4AEH     SYMBOL    CONST     ---     ---   BCON2
      00FF0CH     SYMBOL    SFR       ---     ---   BUSCON0
      00FF16H     SYMBOL    SFR       ---     ---   BUSCON2
      00E800H     SYMBOL    CONST     ---     ---   CANCLC
      00FE10H     SYMBOL    SFR       ---     ---   CP
      00FE00H     SYMBOL    SFR       ---     ---   DPP0
      00FE02H     SYMBOL    SFR       ---     ---   DPP1
      00FE04H     SYMBOL    SFR       ---     ---   DPP2
      00FE06H     SYMBOL    SFR       ---     ---   DPP3
      00FE14H     SYMBOL    SFR       ---     ---   STKOV
      00FF12H     SYMBOL    SFR       ---     ---   SYSCON
      00FFEFH     SYMBOL    CONST     ---     ---   SYS_BITS
      000004H     SYMBOL    CONST     ---     ---   SYS_H
      000004H     SYMBOL    CONST     ---     ---   SYS_L
      000400H     SYMBOL    CONST     ---     ---   USTSZ
      00F014H     SYMBOL    CONST     ---     ---   XADRS1
      00F114H     SYMBOL    CONST     ---     ---   XBCON1
      00F024H     SYMBOL    CONST     ---     ---   XPERCON
      000000H     SYMBOL    CONST     ---     ---   _ALECTL0
      000000H     SYMBOL    CONST     ---     ---   _ALECTL2
      000000H     SYMBOL    CONST     ---     ---   _BDRSTEN
      00FA00H     SYMBOL    CONST     ---     ---   _BOS
      000002H     SYMBOL    CONST     ---     ---   _BTYP2
      000001H     SYMBOL    CONST     ---     ---   _BUSACT2
      000000H     SYMBOL    CONST     ---     ---   _BYTDIS
      000000H     SYMBOL    CONST     ---     ---   _CLKEN
      000000H     SYMBOL    CONST     ---     ---   _CSCFG
      000000H     SYMBOL    CONST     ---     ---   _CSREN0
      000001H     SYMBOL    CONST     ---     ---   _CSREN2
      000000H     SYMBOL    CONST     ---     ---   _CSWEN0
      000001H     SYMBOL    CONST     ---     ---   _CSWEN2
      000001H     SYMBOL    CONST     ---     ---   _MCTC0
      000001H     SYMBOL    CONST     ---     ---   _MCTC2
      000001H     SYMBOL    CONST     ---     ---   _MTTC0
      000001H     SYMBOL    CONST     ---     ---   _MTTC2
      000000H     SYMBOL    CONST     ---     ---   _PWDCFG
      000000H     SYMBOL    CONST     ---     ---   _RDYEN0
      000000H     SYMBOL    CONST     ---     ---   _RDYEN2
      000000H     SYMBOL    CONST     ---     ---   _RDY_AS0
      000000H     SYMBOL    CONST     ---     ---   _RDY_AS2
      000001H     SYMBOL    CONST     ---     ---   _ROMEN
L166 LINKER/LOCATER V5.25                                                             04/03/2017  17:18:59  PAGE 7


      000000H     SYMBOL    CONST     ---     ---   _ROMS1
      000000H     SYMBOL    CONST     ---     ---   _RWDC0
      000000H     SYMBOL    CONST     ---     ---   _RWDC2
      000000H     SYMBOL    CONST     ---     ---   _SGTDIS
      000000H     SYMBOL    CONST     ---     ---   _STKSZ
      000001H     SYMBOL    CONST     ---     ---   _STKSZ1
      00FC00H     SYMBOL    CONST     ---     ---   _TOS
      000000H     SYMBOL    CONST     ---     ---   _VISIBLE
      000000H     SYMBOL    CONST     ---     ---   _WRCFG
      000001H     SYMBOL    CONST     ---     ---   _XPEN
      000000H     SYMBOL    CONST     ---     ---   _XPERSHARE

      000282H     BLOCK     LVL=0     0092H   ---   ?C_RESET
      000282H     LINE      ---       ---     ---   #623
      000286H     LINE      ---       ---     ---   #624
      00028AH     LINE      ---       ---     ---   #625
      00028CH     LINE      ---       ---     ---   #626
      000290H     LINE      ---       ---     ---   #627
      000292H     LINE      ---       ---     ---   #633
      000296H     LINE      ---       ---     ---   #669
      00029AH     LINE      ---       ---     ---   #670
      00029EH     LINE      ---       ---     ---   #672
      0002A0H     LINE      ---       ---     ---   #673
      0002A2H     LINE      ---       ---     ---   #674
      0002A6H     LINE      ---       ---     ---   #676
      0002AAH     LINE      ---       ---     ---   #677
      0002ACH     LINE      ---       ---     ---   #678
      0002B0H     LINE      ---       ---     ---   #680
      0002B4H     LINE      ---       ---     ---   #681
      0002B6H     LINE      ---       ---     ---   #682
      0002BAH     LINE      ---       ---     ---   #684
      0002BCH     LINE      ---       ---     ---   #685
      0002BEH     LINE      ---       ---     ---   #691
      0002C0H     LINE      ---       ---     ---   #692
      0002C2H     LINE      ---       ---     ---   #693
      0002C6H     LINE      ---       ---     ---   #694
      0002C8H     LINE      ---       ---     ---   #695
      0002CAH     LINE      ---       ---     ---   #696
      0002CEH     LINE      ---       ---     ---   #697
      0002D0H     LINE      ---       ---     ---   #698
      0002D4H     LINE      ---       ---     ---   #699
      0002D6H     LINE      ---       ---     ---   #700
      0002DAH     LINE      ---       ---     ---   #701
      0002DCH     LINE      ---       ---     ---   #702
      0002E0H     LINE      ---       ---     ---   #703
      0002E2H     LINE      ---       ---     ---   #704
      0002E4H     LINE      ---       ---     ---   #779
      0002E8H     LINE      ---       ---     ---   #780
      0002ECH     LINE      ---       ---     ---   #818
      0002F0H     LINE      ---       ---     ---   #828
      0002F4H     LINE      ---       ---     ---   #830
      0002F8H     LINE      ---       ---     ---   #831
      0002FCH     LINE      ---       ---     ---   #835
      000300H     LINE      ---       ---     ---   #836
      000304H     LINE      ---       ---     ---   #839
      000308H     LINE      ---       ---     ---   #840
      00030AH     LINE      ---       ---     ---   #841
L166 LINKER/LOCATER V5.25                                                             04/03/2017  17:18:59  PAGE 8


      00030CH     LINE      ---       ---     ---   #844
      000310H     LINE      ---       ---     ---   #1093
      000290H     SYMBOL    LABEL     ---     ---   RUN_MAIN
      ---         BLOCKEND  LVL=0     ---     ---   
      00FF98H     SYMBOL    SFR       ---     ---   ADCIC
      00FFA0H     SYMBOL    SFR       ---     ---   ADCON
      00FF9AH     SYMBOL    SFR       ---     ---   ADEIC
      00FF0CH     SYMBOL    SFR       ---     ---   BUSCON0
      00FF14H     SYMBOL    SFR       ---     ---   BUSCON1
      00FF16H     SYMBOL    SFR       ---     ---   BUSCON2
      00FF18H     SYMBOL    SFR       ---     ---   BUSCON3
      00FF1AH     SYMBOL    SFR       ---     ---   BUSCON4
      00FF10H.1   SYMBOL    SBIT      ---     ---   C
      00FF78H     SYMBOL    SFR       ---     ---   CC0IC
      00FF8CH     SYMBOL    SFR       ---     ---   CC10IC
      00FF8EH     SYMBOL    SFR       ---     ---   CC11IC
      00FF90H     SYMBOL    SFR       ---     ---   CC12IC
      00FF92H     SYMBOL    SFR       ---     ---   CC13IC
      00FF94H     SYMBOL    SFR       ---     ---   CC14IC
      00FF96H     SYMBOL    SFR       ---     ---   CC15IC
      00F160H     SYMBOL    ESFR      ---     ---   CC16IC
      00F162H     SYMBOL    ESFR      ---     ---   CC17IC
      00F164H     SYMBOL    ESFR      ---     ---   CC18IC
      00F166H     SYMBOL    ESFR      ---     ---   CC19IC
      00FF7AH     SYMBOL    SFR       ---     ---   CC1IC
      00F168H     SYMBOL    ESFR      ---     ---   CC20IC
      00F16AH     SYMBOL    ESFR      ---     ---   CC21IC
      00F16CH     SYMBOL    ESFR      ---     ---   CC22IC
      00F16EH     SYMBOL    ESFR      ---     ---   CC23IC
      00F170H     SYMBOL    ESFR      ---     ---   CC24IC
      00F172H     SYMBOL    ESFR      ---     ---   CC25IC
      00F174H     SYMBOL    ESFR      ---     ---   CC26IC
      00F176H     SYMBOL    ESFR      ---     ---   CC27IC
      00F178H     SYMBOL    ESFR      ---     ---   CC28IC
      00F184H     SYMBOL    ESFR      ---     ---   CC29IC
      00FF7CH     SYMBOL    SFR       ---     ---   CC2IC
      00F18CH     SYMBOL    ESFR      ---     ---   CC30IC
      00F194H     SYMBOL    ESFR      ---     ---   CC31IC
      00FF7EH     SYMBOL    SFR       ---     ---   CC3IC
      00FF80H     SYMBOL    SFR       ---     ---   CC4IC
      00FF82H     SYMBOL    SFR       ---     ---   CC5IC
      00FF84H     SYMBOL    SFR       ---     ---   CC6IC
      00FF86H     SYMBOL    SFR       ---     ---   CC7IC
      00FF88H     SYMBOL    SFR       ---     ---   CC8IC
      00FF8AH     SYMBOL    SFR       ---     ---   CC9IC
      00FF52H     SYMBOL    SFR       ---     ---   CCM0
      00FF54H     SYMBOL    SFR       ---     ---   CCM1
      00FF56H     SYMBOL    SFR       ---     ---   CCM2
      00FF58H     SYMBOL    SFR       ---     ---   CCM3
      00FF22H     SYMBOL    SFR       ---     ---   CCM4
      00FF24H     SYMBOL    SFR       ---     ---   CCM5
      00FF26H     SYMBOL    SFR       ---     ---   CCM6
      00FF28H     SYMBOL    SFR       ---     ---   CCM7
      00FF6AH     SYMBOL    SFR       ---     ---   CRIC
      00FE02H     SYMBOL    SFR       ---     ---   DPP1
      00FE04H     SYMBOL    SFR       ---     ---   DPP2
      00FE06H     SYMBOL    SFR       ---     ---   DPP3
L166 LINKER/LOCATER V5.25                                                             04/03/2017  17:18:59  PAGE 9


      00FF10H.4   SYMBOL    SBIT      ---     ---   E
      00FF11H.2   SYMBOL    SBIT      ---     ---   HLDEN
      00FF11H.3   SYMBOL    SBIT      ---     ---   IEN
      00F1DEH     SYMBOL    ESFR      ---     ---   ISNC
      00FF0EH     SYMBOL    SFR       ---     ---   MDC
      00FF0EH.4   SYMBOL    SBIT      ---     ---   MDRIU
      00FF10H.5   SYMBOL    SBIT      ---     ---   MULIP
      00FF10H     SYMBOL    SBIT      ---     ---   N
      00FF1EH     SYMBOL    SFR       ---     ---   ONES
      00FFC4H     SYMBOL    SFR       ---     ---   P3
      00FFA2H     SYMBOL    SFR       ---     ---   P5
      00FFD0H     SYMBOL    SFR       ---     ---   P7
      00FFD4H     SYMBOL    CONST     ---     ---   P9
      00FEC0H     SYMBOL    SFR       ---     ---   PECC0
      00FEC2H     SYMBOL    SFR       ---     ---   PECC1
      00FEC4H     SYMBOL    SFR       ---     ---   PECC2
      00FEC6H     SYMBOL    SFR       ---     ---   PECC3
      00FEC8H     SYMBOL    SFR       ---     ---   PECC4
      00FECAH     SYMBOL    SFR       ---     ---   PECC5
      00FECCH     SYMBOL    SFR       ---     ---   PECC6
      00FECEH     SYMBOL    SFR       ---     ---   PECC7
      00FF10H     SYMBOL    SFR       ---     ---   PSW
      00FF30H     SYMBOL    SFR       ---     ---   PWMCON0
      00FF32H     SYMBOL    SFR       ---     ---   PWMCON1
      00F17EH     SYMBOL    ESFR      ---     ---   PWMIC
      00FFB0H     SYMBOL    SFR       ---     ---   S0CON
      00FF70H     SYMBOL    SFR       ---     ---   S0EIC
      00FF6EH     SYMBOL    SFR       ---     ---   S0RIC
      00F19CH     SYMBOL    ESFR      ---     ---   S0TBIC
      00FF6CH     SYMBOL    SFR       ---     ---   S0TIC
      00F1B8H     SYMBOL    CONST     ---     ---   S1CON
      00F192H     SYMBOL    CONST     ---     ---   S1EIC
      00F18AH     SYMBOL    CONST     ---     ---   S1RIC
      00F13CH     SYMBOL    CONST     ---     ---   S1TBIC
      00F182H     SYMBOL    CONST     ---     ---   S1TIC
      00FFB2H     SYMBOL    CONST     ---     ---   SSC0CON
      00FF76H     SYMBOL    CONST     ---     ---   SSC0EIC
      00FF74H     SYMBOL    CONST     ---     ---   SSC0RIC
      00FF72H     SYMBOL    CONST     ---     ---   SSC0TIC
      00FF5EH     SYMBOL    CONST     ---     ---   SSC1CON
      00F126H     SYMBOL    CONST     ---     ---   SSC1EIC
      00F124H     SYMBOL    CONST     ---     ---   SSC1RIC
      00F122H     SYMBOL    CONST     ---     ---   SSC1TIC
      00FF12H     SYMBOL    SFR       ---     ---   SYSCON
      00F1D0H     SYMBOL    ESFR      ---     ---   SYSCON2
      00F1D4H     SYMBOL    ESFR      ---     ---   SYSCON3
      00FF50H     SYMBOL    SFR       ---     ---   T01CON
      00FF9CH     SYMBOL    SFR       ---     ---   T0IC
      00FF9EH     SYMBOL    SFR       ---     ---   T1IC
      00FB0CH     SYMBOL    CONST     ---     ---   T1VAL
      00FF40H     SYMBOL    SFR       ---     ---   T2CON
      00FF60H     SYMBOL    SFR       ---     ---   T2IC
      00FF42H     SYMBOL    SFR       ---     ---   T3CON
      00FFC4H.4   SYMBOL    SBIT      ---     ---   T3EUD
      00FF62H     SYMBOL    SFR       ---     ---   T3IC
      00FF44H     SYMBOL    SFR       ---     ---   T4CON
      00FF64H     SYMBOL    SFR       ---     ---   T4IC
L166 LINKER/LOCATER V5.25                                                             04/03/2017  17:18:59  PAGE 10


      00FF46H     SYMBOL    SFR       ---     ---   T5CON
      00FF66H     SYMBOL    SFR       ---     ---   T5IC
      00FF48H     SYMBOL    SFR       ---     ---   T6CON
      00FF68H     SYMBOL    SFR       ---     ---   T6IC
      00F050H     SYMBOL    ESFR      ---     ---   T7
      00FF20H     SYMBOL    SFR       ---     ---   T78CON
      00F17AH     SYMBOL    ESFR      ---     ---   T7IC
      00FB0CH     SYMBOL    CONST     ---     ---   T7VAL
      00F052H     SYMBOL    ESFR      ---     ---   T8
      00F17CH     SYMBOL    ESFR      ---     ---   T8IC
      00FB0CH     SYMBOL    CONST     ---     ---   T8VAL
      00FFACH     SYMBOL    SFR       ---     ---   TFR
      00FF10H.6   SYMBOL    SBIT      ---     ---   USR0
      00FF10H.2   SYMBOL    SBIT      ---     ---   V
      00FFAEH     SYMBOL    SFR       ---     ---   WDTCON
      00F186H     SYMBOL    ESFR      ---     ---   XP0IC
      00F18EH     SYMBOL    ESFR      ---     ---   XP1IC
      00F196H     SYMBOL    ESFR      ---     ---   XP2IC
      00F19EH     SYMBOL    ESFR      ---     ---   XP3IC
      00FF10H.3   SYMBOL    SBIT      ---     ---   Z
      00FF1CH     SYMBOL    SFR       ---     ---   ZEROS

      0001A0H     BLOCK     LVL=0     000AH   ---   GROUP1_CLEAR
      0001A0H     LINE      ---       ---     ---   #21
      0001A2H     LINE      ---       ---     ---   #22
      0001A4H     LINE      ---       ---     ---   #23
      0001A6H     LINE      ---       ---     ---   #24
      0001A8H     LINE      ---       ---     ---   #26
      ---         BLOCKEND  LVL=0     ---     ---   

      0001AAH     BLOCK     LVL=0     0006H   ---   GROUP2_CLEAR
      0001AAH     LINE      ---       ---     ---   #31
      0001ACH     LINE      ---       ---     ---   #32
      0001AEH     LINE      ---       ---     ---   #34
      ---         BLOCKEND  LVL=0     ---     ---   

      0001B0H     BLOCK     LVL=0     0006H   ---   GROUP3_CLEAR
      0001B0H     LINE      ---       ---     ---   #39
      0001B2H     LINE      ---       ---     ---   #40
      0001B4H     LINE      ---       ---     ---   #42
      ---         BLOCKEND  LVL=0     ---     ---   

      0001B6H     BLOCK     LVL=0     0006H   ---   GROUP2INT_OFF
      0001B6H     LINE      ---       ---     ---   #47
      0001B8H     LINE      ---       ---     ---   #48
      0001BAH     LINE      ---       ---     ---   #49
      ---         BLOCKEND  LVL=0     ---     ---   

      0001BCH     BLOCK     LVL=0     0006H   ---   GROUP2INT_ON
      0001BCH     LINE      ---       ---     ---   #53
      0001BEH     LINE      ---       ---     ---   #54
      0001C0H     LINE      ---       ---     ---   #55
      ---         BLOCKEND  LVL=0     ---     ---   

      0001C2H     BLOCK     LVL=0     0006H   ---   GROUP3INT_OFF
      0001C2H     LINE      ---       ---     ---   #59
      0001C4H     LINE      ---       ---     ---   #60
L166 LINKER/LOCATER V5.25                                                             04/03/2017  17:18:59  PAGE 11


      0001C6H     LINE      ---       ---     ---   #61
      ---         BLOCKEND  LVL=0     ---     ---   

      0001C8H     BLOCK     LVL=0     0006H   ---   GROUP3INT_ON
      0001C8H     LINE      ---       ---     ---   #65
      0001CAH     LINE      ---       ---     ---   #66
      0001CCH     LINE      ---       ---     ---   #67
      ---         BLOCKEND  LVL=0     ---     ---   

      0001CEH     BLOCK     LVL=0     0020H   ---   TIMER7IC
      0001CEH     LINE      ---       ---     ---   #74
      0001D0H     LINE      ---       ---     ---   #75
      0001D2H     LINE      ---       ---     ---   #77
      0001D6H     LINE      ---       ---     ---   #78
      0001DAH     LINE      ---       ---     ---   #80
      0001DCH     LINE      ---       ---     ---   #81
      0001DEH     LINE      ---       ---     ---   #82
      0001E0H     LINE      ---       ---     ---   #83
      0001E2H     LINE      ---       ---     ---   #84
      0001E4H     LINE      ---       ---     ---   #85
      0001E6H     LINE      ---       ---     ---   #86
      0001E8H     LINE      ---       ---     ---   #88
      0001EAH     LINE      ---       ---     ---   #89
      0001ECH     LINE      ---       ---     ---   #91
      ---         BLOCKEND  LVL=0     ---     ---   

      0001EEH     BLOCK     LVL=0     0020H   ---   CC28IO
      0001EEH     LINE      ---       ---     ---   #98
      0001F0H     LINE      ---       ---     ---   #101
      0001F2H     LINE      ---       ---     ---   #102
      0001F4H     LINE      ---       ---     ---   #103
      0001F6H     LINE      ---       ---     ---   #104
      0001F8H     LINE      ---       ---     ---   #105
      0001FAH     LINE      ---       ---     ---   #106
      0001FCH     LINE      ---       ---     ---   #107
      0001FEH     LINE      ---       ---     ---   #109
      000200H     LINE      ---       ---     ---   #110
      000202H     LINE      ---       ---     ---   #111
      000204H     LINE      ---       ---     ---   #112
      000206H     LINE      ---       ---     ---   #113
      000208H     LINE      ---       ---     ---   #119
      00020AH     LINE      ---       ---     ---   #122
      00020CH     LINE      ---       ---     ---   #124
      ---         BLOCKEND  LVL=0     ---     ---   

      00020EH     BLOCK     LVL=0     001CH   ---   TIMER8IC
      00020EH     LINE      ---       ---     ---   #131
      000210H     LINE      ---       ---     ---   #132
      000214H     LINE      ---       ---     ---   #133
      000218H     LINE      ---       ---     ---   #135
      00021AH     LINE      ---       ---     ---   #136
      00021CH     LINE      ---       ---     ---   #137
      00021EH     LINE      ---       ---     ---   #138
      000220H     LINE      ---       ---     ---   #139
      000222H     LINE      ---       ---     ---   #140
      000224H     LINE      ---       ---     ---   #141
      000226H     LINE      ---       ---     ---   #143
L166 LINKER/LOCATER V5.25                                                             04/03/2017  17:18:59  PAGE 12


      000228H     LINE      ---       ---     ---   #145
      ---         BLOCKEND  LVL=0     ---     ---   

      00022AH     BLOCK     LVL=0     001CH   ---   CAPCOM30IO
      00022AH     LINE      ---       ---     ---   #150
      00022CH     LINE      ---       ---     ---   #151
      00022EH     LINE      ---       ---     ---   #152
      000230H     LINE      ---       ---     ---   #153
      000232H     LINE      ---       ---     ---   #154
      000234H     LINE      ---       ---     ---   #155
      000236H     LINE      ---       ---     ---   #156
      000238H     LINE      ---       ---     ---   #158
      00023AH     LINE      ---       ---     ---   #159
      00023CH     LINE      ---       ---     ---   #160
      00023EH     LINE      ---       ---     ---   #161
      000240H     LINE      ---       ---     ---   #162
      000242H     LINE      ---       ---     ---   #164
      000244H     LINE      ---       ---     ---   #166
      ---         BLOCKEND  LVL=0     ---     ---   

      000246H     BLOCK     LVL=0     0020H   ---   TIMER1IC
      000246H     LINE      ---       ---     ---   #174
      000248H     LINE      ---       ---     ---   #175
      00024CH     LINE      ---       ---     ---   #176
      000250H     LINE      ---       ---     ---   #177
      000252H     LINE      ---       ---     ---   #178
      000256H     LINE      ---       ---     ---   #180
      000258H     LINE      ---       ---     ---   #181
      00025AH     LINE      ---       ---     ---   #182
      00025CH     LINE      ---       ---     ---   #183
      00025EH     LINE      ---       ---     ---   #184
      000260H     LINE      ---       ---     ---   #186
      000262H     LINE      ---       ---     ---   #187
      000264H     LINE      ---       ---     ---   #189
      ---         BLOCKEND  LVL=0     ---     ---   

      000266H     BLOCK     LVL=0     001CH   ---   CAPCOM4IC
      000266H     LINE      ---       ---     ---   #193
      000268H     LINE      ---       ---     ---   #194
      00026AH     LINE      ---       ---     ---   #195
      00026CH     LINE      ---       ---     ---   #196
      00026EH     LINE      ---       ---     ---   #197
      000270H     LINE      ---       ---     ---   #198
      000272H     LINE      ---       ---     ---   #200
      000274H     LINE      ---       ---     ---   #201
      000276H     LINE      ---       ---     ---   #202
      000278H     LINE      ---       ---     ---   #203
      00027AH     LINE      ---       ---     ---   #204
      00027CH     LINE      ---       ---     ---   #205
      00027EH     LINE      ---       ---     ---   #207
      000280H     LINE      ---       ---     ---   #209
      ---         BLOCKEND  LVL=0     ---     ---   
      021ACAH     GLOBAL    LABEL     ---     ---   main
      00400AH     PUBLIC    VAR       ---     ---   SerialNumberBD
      050400H     PUBLIC    VAR       ---     ---   malloc_mempool

      021ACAH     BLOCK     LVL=0     00D2H   ---   main
L166 LINKER/LOCATER V5.25                                                             04/03/2017  17:18:59  PAGE 13


      021ACAH     BLOCK     LVL=1     00D2H   ---   
      00000EH     SYMBOL    REG       ---     ---   pReprogWord
      ---         BLOCKEND  LVL=1     ---     ---   
      021ACAH     LINE      ---       ---     ---   #16
      021ACAH     LINE      ---       ---     ---   #17
      021ACAH     LINE      ---       ---     ---   #18
      021AD4H     LINE      ---       ---     ---   #20
      021AD6H     LINE      ---       ---     ---   #21
      021AD8H     LINE      ---       ---     ---   #23
      021ADCH     LINE      ---       ---     ---   #25
      021AE0H     LINE      ---       ---     ---   #27
      021AEAH     LINE      ---       ---     ---   #29
      021AF0H     LINE      ---       ---     ---   #31
      021AF4H     LINE      ---       ---     ---   #32
      021AF4H     LINE      ---       ---     ---   #35
      021B04H     LINE      ---       ---     ---   #37
      021B08H     LINE      ---       ---     ---   #40
      021B0CH     LINE      ---       ---     ---   #41
      021B10H     LINE      ---       ---     ---   #43
      021B14H     LINE      ---       ---     ---   #44
      021B18H     LINE      ---       ---     ---   #46
      021B1CH     LINE      ---       ---     ---   #47
      021B20H     LINE      ---       ---     ---   #49
      021B24H     LINE      ---       ---     ---   #50
      021B28H     LINE      ---       ---     ---   #54
      021B2CH     LINE      ---       ---     ---   #55
      021B30H     LINE      ---       ---     ---   #56
      021B34H     LINE      ---       ---     ---   #58
      021B38H     LINE      ---       ---     ---   #59
      021B3CH     LINE      ---       ---     ---   #61
      021B40H     LINE      ---       ---     ---   #62
      021B46H     LINE      ---       ---     ---   #63
      021B4AH     LINE      ---       ---     ---   #66
      021B4EH     LINE      ---       ---     ---   #67
      021B52H     LINE      ---       ---     ---   #68
      021B56H     LINE      ---       ---     ---   #71
      021B58H     LINE      ---       ---     ---   #72
      021B5AH     LINE      ---       ---     ---   #73
      021B5CH     LINE      ---       ---     ---   #75
      021B5EH     LINE      ---       ---     ---   #88
      021B62H     LINE      ---       ---     ---   #89
      021B66H     LINE      ---       ---     ---   #91
      021B6AH     LINE      ---       ---     ---   #92
      021B6EH     LINE      ---       ---     ---   #95
      021B72H     LINE      ---       ---     ---   #96
      021B76H     LINE      ---       ---     ---   #100
      021B7CH     LINE      ---       ---     ---   #101
      021B80H     LINE      ---       ---     ---   #102
      021B84H     LINE      ---       ---     ---   #104
      021B86H     LINE      ---       ---     ---   #107
      021B8EH     LINE      ---       ---     ---   #110
      021B96H     LINE      ---       ---     ---   #112
      021B96H     LINE      ---       ---     ---   #114
      021B9AH     LINE      ---       ---     ---   #115
      ---         BLOCKEND  LVL=0     ---     ---   
      020748H     PUBLIC    LABEL     ---     ---   Process_Stop
      0200B8H     PUBLIC    LABEL     ---     ---   Process_MainProc
L166 LINKER/LOCATER V5.25                                                             04/03/2017  17:18:59  PAGE 14


      0203B0H     PUBLIC    LABEL     ---     ---   Process_CalculateCurrentDoseRate
      0206C2H     PUBLIC    LABEL     ---     ---   Process_Start
      02005AH     PUBLIC    LABEL     ---     ---   Process_Group3IntOff
      020058H     PUBLIC    LABEL     ---     ---   Process_Group2IntOff
      02004EH     PUBLIC    LABEL     ---     ---   Process_Group1IntOff
      0205F8H     PUBLIC    LABEL     ---     ---   Process_CalculateCountingRate
      0200AEH     PUBLIC    LABEL     ---     ---   Process_EXIN8
      0200A4H     PUBLIC    LABEL     ---     ---   Process_EXIN7
      020098H     PUBLIC    LABEL     ---     ---   Process_EXIN6
      02008CH     PUBLIC    LABEL     ---     ---   Process_EXIN5
      020080H     PUBLIC    LABEL     ---     ---   Process_EXIN4
      020074H     PUBLIC    LABEL     ---     ---   Process_EXIN3
      020068H     PUBLIC    LABEL     ---     ---   Process_EXIN2
      02005CH     PUBLIC    LABEL     ---     ---   Process_EXIN1
      020000H     PUBLIC    LABEL     ---     ---   Process_Initializetion
      051400H     PUBLIC    VAR       ---     ---   sensorCnt
      051410H     PUBLIC    VAR       ---     ---   sliderQuery
      051488H     PUBLIC    VAR       ---     ---   dynamicMode
      051489H     PUBLIC    VAR       ---     ---   sliderCounter

      020000H     BLOCK     LVL=0     004EH   ---   Process_Initializetion
      020000H     LINE      ---       ---     ---   #14
      020000H     LINE      ---       ---     ---   #16
      020016H     LINE      ---       ---     ---   #17
      02002CH     LINE      ---       ---     ---   #19
      020030H     LINE      ---       ---     ---   #20
      020034H     LINE      ---       ---     ---   #21
      020038H     LINE      ---       ---     ---   #22
      02003CH     LINE      ---       ---     ---   #24
      020040H     LINE      ---       ---     ---   #25
      020044H     LINE      ---       ---     ---   #27
      020048H     LINE      ---       ---     ---   #28
      02004CH     LINE      ---       ---     ---   #30
      ---         BLOCKEND  LVL=0     ---     ---   

      02004EH     BLOCK     LVL=0     000AH   ---   Process_Group1IntOff
      02004EH     LINE      ---       ---     ---   #37
      02004EH     LINE      ---       ---     ---   #39
      020050H     LINE      ---       ---     ---   #40
      020052H     LINE      ---       ---     ---   #41
      020054H     LINE      ---       ---     ---   #42
      020056H     LINE      ---       ---     ---   #43
      ---         BLOCKEND  LVL=0     ---     ---   

      020058H     BLOCK     LVL=0     0002H   ---   Process_Group2IntOff
      020058H     LINE      ---       ---     ---   #44
      020058H     LINE      ---       ---     ---   #47
      ---         BLOCKEND  LVL=0     ---     ---   

      02005AH     BLOCK     LVL=0     0002H   ---   Process_Group3IntOff
      02005AH     LINE      ---       ---     ---   #48
      02005AH     LINE      ---       ---     ---   #51
      ---         BLOCKEND  LVL=0     ---     ---   

      02005CH     BLOCK     LVL=0     000CH   ---   Process_EXIN1
      02005CH     LINE      ---       ---     ---   #54
      02005CH     LINE      ---       ---     ---   #57
L166 LINKER/LOCATER V5.25                                                             04/03/2017  17:18:59  PAGE 15


      020062H     LINE      ---       ---     ---   #58
      020066H     LINE      ---       ---     ---   #60
      ---         BLOCKEND  LVL=0     ---     ---   

      020068H     BLOCK     LVL=0     000CH   ---   Process_EXIN2
      020068H     LINE      ---       ---     ---   #61
      020068H     LINE      ---       ---     ---   #63
      02006EH     LINE      ---       ---     ---   #64
      020072H     LINE      ---       ---     ---   #65
      ---         BLOCKEND  LVL=0     ---     ---   

      020074H     BLOCK     LVL=0     000CH   ---   Process_EXIN3
      020074H     LINE      ---       ---     ---   #66
      020074H     LINE      ---       ---     ---   #68
      02007AH     LINE      ---       ---     ---   #69
      02007EH     LINE      ---       ---     ---   #70
      ---         BLOCKEND  LVL=0     ---     ---   

      020080H     BLOCK     LVL=0     000CH   ---   Process_EXIN4
      020080H     LINE      ---       ---     ---   #71
      020080H     LINE      ---       ---     ---   #73
      020086H     LINE      ---       ---     ---   #74
      02008AH     LINE      ---       ---     ---   #75
      ---         BLOCKEND  LVL=0     ---     ---   

      02008CH     BLOCK     LVL=0     000CH   ---   Process_EXIN5
      02008CH     LINE      ---       ---     ---   #76
      02008CH     LINE      ---       ---     ---   #78
      020092H     LINE      ---       ---     ---   #79
      020096H     LINE      ---       ---     ---   #80
      ---         BLOCKEND  LVL=0     ---     ---   

      020098H     BLOCK     LVL=0     000CH   ---   Process_EXIN6
      020098H     LINE      ---       ---     ---   #81
      020098H     LINE      ---       ---     ---   #83
      02009EH     LINE      ---       ---     ---   #84
      0200A2H     LINE      ---       ---     ---   #85
      ---         BLOCKEND  LVL=0     ---     ---   

      0200A4H     BLOCK     LVL=0     000AH   ---   Process_EXIN7
      0200A4H     LINE      ---       ---     ---   #86
      0200A4H     LINE      ---       ---     ---   #88
      0200A8H     LINE      ---       ---     ---   #89
      0200ACH     LINE      ---       ---     ---   #91
      ---         BLOCKEND  LVL=0     ---     ---   

      0200AEH     BLOCK     LVL=0     000AH   ---   Process_EXIN8
      0200AEH     LINE      ---       ---     ---   #92
      0200AEH     LINE      ---       ---     ---   #94
      0200B2H     LINE      ---       ---     ---   #95
      0200B6H     LINE      ---       ---     ---   #97
      ---         BLOCKEND  LVL=0     ---     ---   

      0200B8H     BLOCK     LVL=0     02F8H   ---   Process_MainProc
      0200E8H     BLOCK     LVL=1     029AH   ---   
      000000H     SYMBOL    AUTO      ---     ---   i
      00004DH     SYMBOL    REG       ---     ---   sliderMax
L166 LINKER/LOCATER V5.25                                                             04/03/2017  17:18:59  PAGE 16


      000002H     SYMBOL    AUTO      ---     ---   currentRange
      000004H     SYMBOL    AUTO      ---     ---   autoMode
      000006H     SYMBOL    AUTO      ---     ---   currentDose
      00000AH     SYMBOL    AUTO      ---     ---   averageDose
      00000EH     SYMBOL    REG       ---     ---   counterRate
      ---         BLOCKEND  LVL=1     ---     ---   
      0200B8H     LINE      ---       ---     ---   #103
      0200E8H     LINE      ---       ---     ---   #104
      0200E8H     LINE      ---       ---     ---   #105
      0200ECH     LINE      ---       ---     ---   #106
      0200EEH     LINE      ---       ---     ---   #107
      0200F6H     LINE      ---       ---     ---   #108
      0200FEH     LINE      ---       ---     ---   #110
      020108H     LINE      ---       ---     ---   #111
      020110H     LINE      ---       ---     ---   #112
      020114H     LINE      ---       ---     ---   #115
      020126H     LINE      ---       ---     ---   #116
      020134H     LINE      ---       ---     ---   #119
      02013AH     LINE      ---       ---     ---   #120
      02014AH     LINE      ---       ---     ---   #122
      02014AH     LINE      ---       ---     ---   #124
      020164H     LINE      ---       ---     ---   #125
      020168H     LINE      ---       ---     ---   #126
      02016EH     LINE      ---       ---     ---   #127
      020172H     LINE      ---       ---     ---   #128
      020172H     LINE      ---       ---     ---   #129
      020174H     LINE      ---       ---     ---   #131
      020174H     LINE      ---       ---     ---   #133
      02018EH     LINE      ---       ---     ---   #134
      020192H     LINE      ---       ---     ---   #135
      020198H     LINE      ---       ---     ---   #136
      02019CH     LINE      ---       ---     ---   #137
      02019CH     LINE      ---       ---     ---   #138
      0201B6H     LINE      ---       ---     ---   #140
      0201BAH     LINE      ---       ---     ---   #141
      0201C0H     LINE      ---       ---     ---   #142
      0201C4H     LINE      ---       ---     ---   #143
      0201C4H     LINE      ---       ---     ---   #144
      0201C6H     LINE      ---       ---     ---   #146
      0201C6H     LINE      ---       ---     ---   #148
      0201E0H     LINE      ---       ---     ---   #149
      0201E4H     LINE      ---       ---     ---   #150
      0201FEH     LINE      ---       ---     ---   #152
      020202H     LINE      ---       ---     ---   #153
      020208H     LINE      ---       ---     ---   #154
      02020CH     LINE      ---       ---     ---   #155
      02020CH     LINE      ---       ---     ---   #156
      02020CH     LINE      ---       ---     ---   #157
      02020CH     LINE      ---       ---     ---   #158
      02020CH     LINE      ---       ---     ---   #161
      020214H     LINE      ---       ---     ---   #163
      020224H     LINE      ---       ---     ---   #164
      020228H     LINE      ---       ---     ---   #166
      020230H     LINE      ---       ---     ---   #167
      020238H     LINE      ---       ---     ---   #169
      020238H     LINE      ---       ---     ---   #171
      02023EH     LINE      ---       ---     ---   #172
L166 LINKER/LOCATER V5.25                                                             04/03/2017  17:18:59  PAGE 17


      020240H     LINE      ---       ---     ---   #173
      020260H     LINE      ---       ---     ---   #174
      020262H     LINE      ---       ---     ---   #176
      02026AH     LINE      ---       ---     ---   #177
      020270H     LINE      ---       ---     ---   #179
      020270H     LINE      ---       ---     ---   #181
      020276H     LINE      ---       ---     ---   #182
      020278H     LINE      ---       ---     ---   #183
      020288H     LINE      ---       ---     ---   #184
      02028AH     LINE      ---       ---     ---   #185
      020290H     LINE      ---       ---     ---   #186
      020290H     LINE      ---       ---     ---   #189
      020298H     LINE      ---       ---     ---   #190
      0202AEH     LINE      ---       ---     ---   #191
      0202B2H     LINE      ---       ---     ---   #192
      0202B4H     LINE      ---       ---     ---   #195
      0202CEH     LINE      ---       ---     ---   #196
      0202E4H     LINE      ---       ---     ---   #197
      0202E4H     LINE      ---       ---     ---   #199
      0202EAH     LINE      ---       ---     ---   #200
      02031AH     LINE      ---       ---     ---   #203
      020344H     LINE      ---       ---     ---   #212
      02034AH     LINE      ---       ---     ---   #213
      020358H     LINE      ---       ---     ---   #214
      020360H     LINE      ---       ---     ---   #215
      02036CH     LINE      ---       ---     ---   #217
      020382H     LINE      ---       ---     ---   #221
      ---         BLOCKEND  LVL=0     ---     ---   

      0203B0H     BLOCK     LVL=0     0248H   ---   Process_CalculateCurrentDoseRate
      000048H     SYMBOL    REG       ---     ---   rangeValue
      0203BAH     BLOCK     LVL=1     0232H   ---   
      00000BH     SYMBOL    REG       ---     ---   i
      000000H     SYMBOL    AUTO      ---     ---   numerator
      00000EH     SYMBOL    REG       ---     ---   denominator
      000004H     SYMBOL    AUTO      ---     ---   dose
      000008H     SYMBOL    AUTO      ---     ---   leftPart
      00000CH     SYMBOL    REG       ---     ---   rightPart
      ---         BLOCKEND  LVL=1     ---     ---   
      0203B0H     LINE      ---       ---     ---   #224
      0203BAH     LINE      ---       ---     ---   #225
      0203BAH     LINE      ---       ---     ---   #226
      0203BCH     LINE      ---       ---     ---   #227
      0203C4H     LINE      ---       ---     ---   #228
      0203C8H     LINE      ---       ---     ---   #229
      0203D0H     LINE      ---       ---     ---   #231
      0203D8H     LINE      ---       ---     ---   #232
      0203DCH     LINE      ---       ---     ---   #234
      0203EEH     LINE      ---       ---     ---   #236
      0203EEH     LINE      ---       ---     ---   #244
      020416H     LINE      ---       ---     ---   #246
      020418H     LINE      ---       ---     ---   #248
      02043EH     LINE      ---       ---     ---   #249
      02046CH     LINE      ---       ---     ---   #251
      02048AH     LINE      ---       ---     ---   #252
      02048EH     LINE      ---       ---     ---   #253
      020492H     LINE      ---       ---     ---   #255
L166 LINKER/LOCATER V5.25                                                             04/03/2017  17:18:59  PAGE 18


      020492H     LINE      ---       ---     ---   #257
      0204BAH     LINE      ---       ---     ---   #259
      0204BCH     LINE      ---       ---     ---   #261
      0204E2H     LINE      ---       ---     ---   #262
      020510H     LINE      ---       ---     ---   #264
      02052EH     LINE      ---       ---     ---   #265
      020532H     LINE      ---       ---     ---   #266
      020534H     LINE      ---       ---     ---   #268
      020534H     LINE      ---       ---     ---   #270
      02055CH     LINE      ---       ---     ---   #272
      02055EH     LINE      ---       ---     ---   #274
      020584H     LINE      ---       ---     ---   #275
      0205B2H     LINE      ---       ---     ---   #277
      0205D0H     LINE      ---       ---     ---   #278
      0205D4H     LINE      ---       ---     ---   #279
      0205D4H     LINE      ---       ---     ---   #280
      0205D4H     LINE      ---       ---     ---   #282
      0205ECH     LINE      ---       ---     ---   #284
      0205ECH     LINE      ---       ---     ---   #285
      ---         BLOCKEND  LVL=0     ---     ---   

      0205F8H     BLOCK     LVL=0     00CAH   ---   Process_CalculateCountingRate
      000048H     SYMBOL    REG       ---     ---   rangeValue
      0205FAH     BLOCK     LVL=1     00C4H   ---   
      00000CH     SYMBOL    REG       ---     ---   cntRate
      00000BH     SYMBOL    REG       ---     ---   i
      ---         BLOCKEND  LVL=1     ---     ---   
      0205F8H     LINE      ---       ---     ---   #286
      0205FAH     LINE      ---       ---     ---   #287
      0205FAH     LINE      ---       ---     ---   #288
      0205FEH     LINE      ---       ---     ---   #289
      020600H     LINE      ---       ---     ---   #291
      02060EH     LINE      ---       ---     ---   #293
      02060EH     LINE      ---       ---     ---   #295
      020610H     LINE      ---       ---     ---   #296
      020634H     LINE      ---       ---     ---   #297
      020646H     LINE      ---       ---     ---   #298
      020648H     LINE      ---       ---     ---   #300
      020648H     LINE      ---       ---     ---   #302
      02064AH     LINE      ---       ---     ---   #303
      02066EH     LINE      ---       ---     ---   #304
      020680H     LINE      ---       ---     ---   #305
      020682H     LINE      ---       ---     ---   #307
      020682H     LINE      ---       ---     ---   #309
      020684H     LINE      ---       ---     ---   #310
      0206A8H     LINE      ---       ---     ---   #311
      0206BAH     LINE      ---       ---     ---   #312
      0206BAH     LINE      ---       ---     ---   #314
      0206BAH     LINE      ---       ---     ---   #315
      0206BAH     LINE      ---       ---     ---   #317
      0206BEH     LINE      ---       ---     ---   #318
      ---         BLOCKEND  LVL=0     ---     ---   

      0206C2H     BLOCK     LVL=0     0086H   ---   Process_Start
      0206C2H     BLOCK     LVL=1     0084H   ---   
      00008CH     SYMBOL    REG       ---     ---   range
      ---         BLOCKEND  LVL=1     ---     ---   
L166 LINKER/LOCATER V5.25                                                             04/03/2017  17:18:59  PAGE 19


      0206C2H     LINE      ---       ---     ---   #321
      0206C2H     LINE      ---       ---     ---   #322
      0206C2H     LINE      ---       ---     ---   #325
      0206C8H     LINE      ---       ---     ---   #327
      0206CCH     LINE      ---       ---     ---   #329
      0206E2H     LINE      ---       ---     ---   #330
      0206F8H     LINE      ---       ---     ---   #339
      020708H     LINE      ---       ---     ---   #341
      020708H     LINE      ---       ---     ---   #343
      02070EH     LINE      ---       ---     ---   #344
      020710H     LINE      ---       ---     ---   #345
      020712H     LINE      ---       ---     ---   #347
      020712H     LINE      ---       ---     ---   #350
      020714H     LINE      ---       ---     ---   #351
      020716H     LINE      ---       ---     ---   #353
      02071AH     LINE      ---       ---     ---   #354
      02071EH     LINE      ---       ---     ---   #356
      020720H     LINE      ---       ---     ---   #359
      020722H     LINE      ---       ---     ---   #361
      020722H     LINE      ---       ---     ---   #364
      020724H     LINE      ---       ---     ---   #365
      020726H     LINE      ---       ---     ---   #367
      02072AH     LINE      ---       ---     ---   #368
      02072EH     LINE      ---       ---     ---   #370
      020730H     LINE      ---       ---     ---   #373
      020732H     LINE      ---       ---     ---   #375
      020732H     LINE      ---       ---     ---   #378
      020734H     LINE      ---       ---     ---   #379
      020736H     LINE      ---       ---     ---   #381
      02073AH     LINE      ---       ---     ---   #382
      02073EH     LINE      ---       ---     ---   #384
      020740H     LINE      ---       ---     ---   #386
      020740H     LINE      ---       ---     ---   #387
      020740H     LINE      ---       ---     ---   #389
      020744H     LINE      ---       ---     ---   #394
      020746H     LINE      ---       ---     ---   #395
      ---         BLOCKEND  LVL=0     ---     ---   

      020748H     BLOCK     LVL=0     0016H   ---   Process_Stop
      020748H     LINE      ---       ---     ---   #397
      020748H     LINE      ---       ---     ---   #399
      02074AH     LINE      ---       ---     ---   #400
      02074CH     LINE      ---       ---     ---   #401
      02074EH     LINE      ---       ---     ---   #403
      020752H     LINE      ---       ---     ---   #404
      020756H     LINE      ---       ---     ---   #405
      02075AH     LINE      ---       ---     ---   #407
      02075CH     LINE      ---       ---     ---   #408
      ---         BLOCKEND  LVL=0     ---     ---   
      00FF98H     SYMBOL    SFR       ---     ---   ADCIC
      00FFA0H     SYMBOL    SFR       ---     ---   ADCON
      00FF9AH     SYMBOL    SFR       ---     ---   ADEIC
      000100H     SYMBOL    CONST     ---     ---   BSLVER
      00FF0CH     SYMBOL    SFR       ---     ---   BUSCON0
      00FF14H     SYMBOL    SFR       ---     ---   BUSCON1
      00FF16H     SYMBOL    SFR       ---     ---   BUSCON2
      00FF18H     SYMBOL    SFR       ---     ---   BUSCON3
L166 LINKER/LOCATER V5.25                                                             04/03/2017  17:18:59  PAGE 20


      00FF1AH     SYMBOL    SFR       ---     ---   BUSCON4
      00FF10H.1   SYMBOL    SBIT      ---     ---   C
      00FF78H     SYMBOL    SFR       ---     ---   CC0IC
      00FF8CH     SYMBOL    SFR       ---     ---   CC10IC
      00FF8EH     SYMBOL    SFR       ---     ---   CC11IC
      00FF90H     SYMBOL    SFR       ---     ---   CC12IC
      00FF92H     SYMBOL    SFR       ---     ---   CC13IC
      00FF94H     SYMBOL    SFR       ---     ---   CC14IC
      00FF96H     SYMBOL    SFR       ---     ---   CC15IC
      00F160H     SYMBOL    ESFR      ---     ---   CC16IC
      00F162H     SYMBOL    ESFR      ---     ---   CC17IC
      00F164H     SYMBOL    ESFR      ---     ---   CC18IC
      00F166H     SYMBOL    ESFR      ---     ---   CC19IC
      00FF7AH     SYMBOL    SFR       ---     ---   CC1IC
      00F168H     SYMBOL    ESFR      ---     ---   CC20IC
      00F16AH     SYMBOL    ESFR      ---     ---   CC21IC
      00F16CH     SYMBOL    ESFR      ---     ---   CC22IC
      00F16EH     SYMBOL    ESFR      ---     ---   CC23IC
      00F170H     SYMBOL    ESFR      ---     ---   CC24IC
      00F172H     SYMBOL    ESFR      ---     ---   CC25IC
      00F174H     SYMBOL    ESFR      ---     ---   CC26IC
      00F176H     SYMBOL    ESFR      ---     ---   CC27IC
      00F178H     SYMBOL    ESFR      ---     ---   CC28IC
      00F184H     SYMBOL    ESFR      ---     ---   CC29IC
      00FF7CH     SYMBOL    SFR       ---     ---   CC2IC
      00FE7CH     SYMBOL    SFR       ---     ---   CC30
      00F18CH     SYMBOL    ESFR      ---     ---   CC30IC
      00FE7EH     SYMBOL    SFR       ---     ---   CC31
      00F194H     SYMBOL    ESFR      ---     ---   CC31IC
      00FF7EH     SYMBOL    SFR       ---     ---   CC3IC
      00FF80H     SYMBOL    SFR       ---     ---   CC4IC
      00FF82H     SYMBOL    SFR       ---     ---   CC5IC
      00FF84H     SYMBOL    SFR       ---     ---   CC6IC
      00FF86H     SYMBOL    SFR       ---     ---   CC7IC
      00FF88H     SYMBOL    SFR       ---     ---   CC8IC
      00FF8AH     SYMBOL    SFR       ---     ---   CC9IC
      00FF52H     SYMBOL    SFR       ---     ---   CCM0
      00FF54H     SYMBOL    SFR       ---     ---   CCM1
      00FF56H     SYMBOL    SFR       ---     ---   CCM2
      00FF58H     SYMBOL    SFR       ---     ---   CCM3
      00FF22H     SYMBOL    SFR       ---     ---   CCM4
      00FF24H     SYMBOL    SFR       ---     ---   CCM5
      00FF26H     SYMBOL    SFR       ---     ---   CCM6
      00FF28H     SYMBOL    SFR       ---     ---   CCM7
      00FF6AH     SYMBOL    SFR       ---     ---   CRIC
      00FE02H     SYMBOL    SFR       ---     ---   DPP1
      00FE04H     SYMBOL    SFR       ---     ---   DPP2
      00FE06H     SYMBOL    SFR       ---     ---   DPP3
      00FF10H.4   SYMBOL    SBIT      ---     ---   E
      00FF11H.2   SYMBOL    SBIT      ---     ---   HLDEN
      00FF11H.3   SYMBOL    SBIT      ---     ---   IEN
      00F1DEH     SYMBOL    ESFR      ---     ---   ISNC
      00FF0EH     SYMBOL    SFR       ---     ---   MDC
      00FF0EH.4   SYMBOL    SBIT      ---     ---   MDRIU
      00FF10H.5   SYMBOL    SBIT      ---     ---   MULIP
      00FF10H     SYMBOL    SBIT      ---     ---   N
      00FF1EH     SYMBOL    SFR       ---     ---   ONES
L166 LINKER/LOCATER V5.25                                                             04/03/2017  17:18:59  PAGE 21


      00FFC4H     SYMBOL    SFR       ---     ---   P3
      00FFA2H     SYMBOL    SFR       ---     ---   P5
      00FEC0H     SYMBOL    SFR       ---     ---   PECC0
      00FEC2H     SYMBOL    SFR       ---     ---   PECC1
      00FEC4H     SYMBOL    SFR       ---     ---   PECC2
      00FEC6H     SYMBOL    SFR       ---     ---   PECC3
      00FEC8H     SYMBOL    SFR       ---     ---   PECC4
      00FECAH     SYMBOL    SFR       ---     ---   PECC5
      00FECCH     SYMBOL    SFR       ---     ---   PECC6
      00FECEH     SYMBOL    SFR       ---     ---   PECC7
      00FF10H     SYMBOL    SFR       ---     ---   PSW
      00FF30H     SYMBOL    SFR       ---     ---   PWMCON0
      00FF32H     SYMBOL    SFR       ---     ---   PWMCON1
      00F17EH     SYMBOL    ESFR      ---     ---   PWMIC
      00FFB0H     SYMBOL    SFR       ---     ---   S0CON
      00FF70H     SYMBOL    SFR       ---     ---   S0EIC
      00FF6EH     SYMBOL    SFR       ---     ---   S0RIC
      00F19CH     SYMBOL    ESFR      ---     ---   S0TBIC
      00FF6CH     SYMBOL    SFR       ---     ---   S0TIC
      00F1B8H     SYMBOL    CONST     ---     ---   S1CON
      00F192H     SYMBOL    CONST     ---     ---   S1EIC
      00F18AH     SYMBOL    CONST     ---     ---   S1RIC
      00F13CH     SYMBOL    CONST     ---     ---   S1TBIC
      00F182H     SYMBOL    CONST     ---     ---   S1TIC
      00FFB2H     SYMBOL    CONST     ---     ---   SSC0CON
      00FF76H     SYMBOL    CONST     ---     ---   SSC0EIC
      00FF74H     SYMBOL    CONST     ---     ---   SSC0RIC
      00FF72H     SYMBOL    CONST     ---     ---   SSC0TIC
      00FF5EH     SYMBOL    CONST     ---     ---   SSC1CON
      00F126H     SYMBOL    CONST     ---     ---   SSC1EIC
      00F124H     SYMBOL    CONST     ---     ---   SSC1RIC
      00F122H     SYMBOL    CONST     ---     ---   SSC1TIC
      00FF12H     SYMBOL    SFR       ---     ---   SYSCON
      00F1D0H     SYMBOL    ESFR      ---     ---   SYSCON2
      00F1D4H     SYMBOL    ESFR      ---     ---   SYSCON3
      00FF50H     SYMBOL    SFR       ---     ---   T01CON
      00FF9CH     SYMBOL    SFR       ---     ---   T0IC
      00FF9EH     SYMBOL    SFR       ---     ---   T1IC
      00FF40H     SYMBOL    SFR       ---     ---   T2CON
      00FF60H     SYMBOL    SFR       ---     ---   T2IC
      00FF42H     SYMBOL    SFR       ---     ---   T3CON
      00FFC4H.4   SYMBOL    SBIT      ---     ---   T3EUD
      00FF62H     SYMBOL    SFR       ---     ---   T3IC
      00FF44H     SYMBOL    SFR       ---     ---   T4CON
      00FF64H     SYMBOL    SFR       ---     ---   T4IC
      00FF46H     SYMBOL    SFR       ---     ---   T5CON
      00FF66H     SYMBOL    SFR       ---     ---   T5IC
      00FF48H     SYMBOL    SFR       ---     ---   T6CON
      00FF68H     SYMBOL    SFR       ---     ---   T6IC
      00FF20H     SYMBOL    SFR       ---     ---   T78CON
      00F17AH     SYMBOL    ESFR      ---     ---   T7IC
      00F17CH     SYMBOL    ESFR      ---     ---   T8IC
      00FFACH     SYMBOL    SFR       ---     ---   TFR
      00FF10H.6   SYMBOL    SBIT      ---     ---   USR0
      00FF10H.2   SYMBOL    SBIT      ---     ---   V
      00FFAEH     SYMBOL    SFR       ---     ---   WDTCON
      00F186H     SYMBOL    ESFR      ---     ---   XP0IC
L166 LINKER/LOCATER V5.25                                                             04/03/2017  17:18:59  PAGE 22


      00F18EH     SYMBOL    ESFR      ---     ---   XP1IC
      00F196H     SYMBOL    ESFR      ---     ---   XP2IC
      00F19EH     SYMBOL    ESFR      ---     ---   XP3IC
      00FF10H.3   SYMBOL    SBIT      ---     ---   Z
      00FF1CH     SYMBOL    SFR       ---     ---   ZEROS

      04F000H     BLOCK     LVL=0     00CAH   ---   CANINTERRUPT
      04F000H     LINE      ---       ---     ---   #38
      04F004H     LINE      ---       ---     ---   #39
      04F008H     LINE      ---       ---     ---   #40
      04F00AH     LINE      ---       ---     ---   #42
      04F00EH     LINE      ---       ---     ---   #43
      04F012H     LINE      ---       ---     ---   #44
      04F016H     LINE      ---       ---     ---   #45
      04F01AH     LINE      ---       ---     ---   #47
      04F01EH     LINE      ---       ---     ---   #48
      04F020H     LINE      ---       ---     ---   #51
      04F024H     LINE      ---       ---     ---   #52
      04F026H     LINE      ---       ---     ---   #53
      04F02AH     LINE      ---       ---     ---   #55
      04F02CH     LINE      ---       ---     ---   #57
      04F030H     LINE      ---       ---     ---   #58
      04F032H     LINE      ---       ---     ---   #59
      04F036H     LINE      ---       ---     ---   #60
      04F03AH     LINE      ---       ---     ---   #62
      04F03CH     LINE      ---       ---     ---   #64
      04F03EH     LINE      ---       ---     ---   #65
      04F040H     LINE      ---       ---     ---   #66
      04F044H     LINE      ---       ---     ---   #67
      04F048H     LINE      ---       ---     ---   #69
      04F04CH     LINE      ---       ---     ---   #70
      04F050H     LINE      ---       ---     ---   #71
      04F054H     LINE      ---       ---     ---   #72
      04F058H     LINE      ---       ---     ---   #73
      04F05CH     LINE      ---       ---     ---   #74
      04F05EH     LINE      ---       ---     ---   #76
      04F062H     LINE      ---       ---     ---   #77
      04F064H     LINE      ---       ---     ---   #78
      04F068H     LINE      ---       ---     ---   #79
      04F06CH     LINE      ---       ---     ---   #80
      04F06EH     LINE      ---       ---     ---   #81
      04F072H     LINE      ---       ---     ---   #84
      04F076H     LINE      ---       ---     ---   #85
      04F07AH     LINE      ---       ---     ---   #88
      04F07EH     LINE      ---       ---     ---   #89
      04F080H     LINE      ---       ---     ---   #90
      04F084H     LINE      ---       ---     ---   #92
      04F086H     LINE      ---       ---     ---   #93
      04F088H     LINE      ---       ---     ---   #94
      04F08CH     LINE      ---       ---     ---   #99
      04F090H     LINE      ---       ---     ---   #100
      04F094H     LINE      ---       ---     ---   #101
      04F098H     LINE      ---       ---     ---   #102
      04F09CH     LINE      ---       ---     ---   #103
      04F0A0H     LINE      ---       ---     ---   #104
      04F0A2H     LINE      ---       ---     ---   #106
      04F0A6H     LINE      ---       ---     ---   #107
L166 LINKER/LOCATER V5.25                                                             04/03/2017  17:18:59  PAGE 23


      04F0A8H     LINE      ---       ---     ---   #108
      04F0ACH     LINE      ---       ---     ---   #109
      04F0B0H     LINE      ---       ---     ---   #110
      04F0B4H     LINE      ---       ---     ---   #111
      04F0B8H     LINE      ---       ---     ---   #112
      04F0BCH     LINE      ---       ---     ---   #114
      04F0C0H     LINE      ---       ---     ---   #115
      04F0C2H     LINE      ---       ---     ---   #116
      04F0C6H     LINE      ---       ---     ---   #119
      04F0C8H     LINE      ---       ---     ---   #122
      04F0C8H     SYMBOL    LABEL     ---     ---   EXIT
      04F0BCH     SYMBOL    LABEL     ---     ---   CMD5
      04F0A2H     SYMBOL    LABEL     ---     ---   CMD4
      04F05EH     SYMBOL    LABEL     ---     ---   CMD3
      04F02CH     SYMBOL    LABEL     ---     ---   CMD2
      04F020H     SYMBOL    LABEL     ---     ---   CMD1
      ---         BLOCKEND  LVL=0     ---     ---   

      04E000H     BLOCK     LVL=0     0156H   ---   LOADER
      04E000H     LINE      ---       ---     ---   #130
      04E004H     LINE      ---       ---     ---   #131
      04E008H     LINE      ---       ---     ---   #133
      04E00AH     LINE      ---       ---     ---   #134
      04E00EH     LINE      ---       ---     ---   #135
      04E012H     LINE      ---       ---     ---   #136
      04E016H     LINE      ---       ---     ---   #137
      04E01AH     LINE      ---       ---     ---   #138
      04E01EH     LINE      ---       ---     ---   #139
      04E022H     LINE      ---       ---     ---   #140
      04E026H     LINE      ---       ---     ---   #141
      04E02AH     LINE      ---       ---     ---   #142
      04E02EH     LINE      ---       ---     ---   #143
      04E032H     LINE      ---       ---     ---   #144
      04E036H     LINE      ---       ---     ---   #145
      04E03AH     LINE      ---       ---     ---   #146
      04E03EH     LINE      ---       ---     ---   #147
      04E042H     LINE      ---       ---     ---   #148
      04E046H     LINE      ---       ---     ---   #151
      04E04AH     LINE      ---       ---     ---   #152
      04E04EH     LINE      ---       ---     ---   #153
      04E050H     LINE      ---       ---     ---   #154
      04E054H     LINE      ---       ---     ---   #155
      04E058H     LINE      ---       ---     ---   #156
      04E05CH     LINE      ---       ---     ---   #157
      04E05EH     LINE      ---       ---     ---   #158
      04E060H     LINE      ---       ---     ---   #159
      04E062H     LINE      ---       ---     ---   #160
      04E064H     LINE      ---       ---     ---   #161
      04E066H     LINE      ---       ---     ---   #162
      04E068H     LINE      ---       ---     ---   #163
      04E06CH     LINE      ---       ---     ---   #164
      04E070H     LINE      ---       ---     ---   #165
      04E072H     LINE      ---       ---     ---   #166
      04E076H     LINE      ---       ---     ---   #167
      04E078H     LINE      ---       ---     ---   #168
      04E07CH     LINE      ---       ---     ---   #169
      04E080H     LINE      ---       ---     ---   #170
L166 LINKER/LOCATER V5.25                                                             04/03/2017  17:18:59  PAGE 24


      04E084H     LINE      ---       ---     ---   #171
      04E086H     LINE      ---       ---     ---   #172
      04E088H     LINE      ---       ---     ---   #173
      04E08AH     LINE      ---       ---     ---   #174
      04E08CH     LINE      ---       ---     ---   #175
      04E08EH     LINE      ---       ---     ---   #176
      04E090H     LINE      ---       ---     ---   #177
      04E094H     LINE      ---       ---     ---   #178
      04E098H     LINE      ---       ---     ---   #179
      04E09CH     LINE      ---       ---     ---   #180
      04E0A0H     LINE      ---       ---     ---   #181
      04E0A4H     LINE      ---       ---     ---   #182
      04E0A8H     LINE      ---       ---     ---   #183
      04E0ACH     LINE      ---       ---     ---   #184
      04E0B0H     LINE      ---       ---     ---   #188
      04E0B2H     LINE      ---       ---     ---   #189
      04E0B4H     LINE      ---       ---     ---   #190
      04E0B6H     LINE      ---       ---     ---   #191
      04E0B8H     LINE      ---       ---     ---   #192
      04E0BAH     LINE      ---       ---     ---   #193
      04E0BCH     LINE      ---       ---     ---   #194
      04E0BEH     LINE      ---       ---     ---   #195
      04E0C0H     LINE      ---       ---     ---   #196
      04E0C2H     LINE      ---       ---     ---   #197
      04E0C4H     LINE      ---       ---     ---   #198
      04E0C6H     LINE      ---       ---     ---   #199
      04E0C8H     LINE      ---       ---     ---   #200
      04E0CAH     LINE      ---       ---     ---   #201
      04E0CCH     LINE      ---       ---     ---   #202
      04E0CEH     LINE      ---       ---     ---   #203
      04E0D0H     LINE      ---       ---     ---   #204
      04E0D2H     LINE      ---       ---     ---   #205
      04E0D4H     LINE      ---       ---     ---   #206
      04E0D6H     LINE      ---       ---     ---   #207
      04E0D8H     LINE      ---       ---     ---   #208
      04E0DAH     LINE      ---       ---     ---   #209
      04E0DCH     LINE      ---       ---     ---   #210
      04E0DEH     LINE      ---       ---     ---   #211
      04E0E0H     LINE      ---       ---     ---   #212
      04E0E4H     LINE      ---       ---     ---   #213
      04E0E8H     LINE      ---       ---     ---   #214
      04E0EAH     LINE      ---       ---     ---   #215
      04E0ECH     LINE      ---       ---     ---   #216
      04E0F0H     LINE      ---       ---     ---   #217
      04E0F4H     LINE      ---       ---     ---   #218
      04E0F6H     LINE      ---       ---     ---   #219
      04E0F8H     LINE      ---       ---     ---   #220
      04E0FAH     LINE      ---       ---     ---   #221
      04E0FCH     LINE      ---       ---     ---   #222
      04E0FEH     LINE      ---       ---     ---   #223
      04E100H     LINE      ---       ---     ---   #224
      04E104H     LINE      ---       ---     ---   #225
      04E108H     LINE      ---       ---     ---   #226
      04E10AH     LINE      ---       ---     ---   #227
      04E10CH     LINE      ---       ---     ---   #228
      04E110H     LINE      ---       ---     ---   #229
      04E114H     LINE      ---       ---     ---   #230
L166 LINKER/LOCATER V5.25                                                             04/03/2017  17:18:59  PAGE 25


      04E116H     LINE      ---       ---     ---   #231
      04E118H     LINE      ---       ---     ---   #232
      04E11AH     LINE      ---       ---     ---   #233
      04E11CH     LINE      ---       ---     ---   #234
      04E11EH     LINE      ---       ---     ---   #235
      04E120H     LINE      ---       ---     ---   #236
      04E124H     LINE      ---       ---     ---   #237
      04E128H     LINE      ---       ---     ---   #238
      04E12AH     LINE      ---       ---     ---   #239
      04E12EH     LINE      ---       ---     ---   #240
      04E132H     LINE      ---       ---     ---   #241
      04E136H     LINE      ---       ---     ---   #242
      04E138H     LINE      ---       ---     ---   #243
      04E13CH     LINE      ---       ---     ---   #247
      04E13EH     LINE      ---       ---     ---   #249
      04E142H     LINE      ---       ---     ---   #250
      04E146H     LINE      ---       ---     ---   #251
      04E14AH     LINE      ---       ---     ---   #252
      04E14EH     LINE      ---       ---     ---   #253
      04E152H     LINE      ---       ---     ---   #257
      04E154H     LINE      ---       ---     ---   #259
      04E152H     SYMBOL    LABEL     ---     ---   L1
      ---         BLOCKEND  LVL=0     ---     ---   

      04E156H     BLOCK     LVL=0     004CH   ---   START
      04E156H     LINE      ---       ---     ---   #266
      04E15AH     LINE      ---       ---     ---   #267
      04E15EH     LINE      ---       ---     ---   #270
      04E160H     LINE      ---       ---     ---   #271
      04E162H     LINE      ---       ---     ---   #273
      04E166H     LINE      ---       ---     ---   #274
      04E16AH     LINE      ---       ---     ---   #279
      04E16EH     LINE      ---       ---     ---   #280
      04E170H     LINE      ---       ---     ---   #281
      04E174H     LINE      ---       ---     ---   #283
      04E178H     LINE      ---       ---     ---   #284
      04E17CH     LINE      ---       ---     ---   #286
      04E180H     LINE      ---       ---     ---   #287
      04E184H     LINE      ---       ---     ---   #289
      04E188H     LINE      ---       ---     ---   #290
      04E18CH     LINE      ---       ---     ---   #292
      04E190H     LINE      ---       ---     ---   #293
      04E194H     LINE      ---       ---     ---   #294
      04E198H     LINE      ---       ---     ---   #295
      04E19CH     LINE      ---       ---     ---   #297
      04E1A0H     LINE      ---       ---     ---   #299
      ---         BLOCKEND  LVL=0     ---     ---   

      04E1A2H     BLOCK     LVL=0     0020H   ---   SENDMESSSAGE
      04E1A2H     LINE      ---       ---     ---   #308
      04E1A6H     LINE      ---       ---     ---   #309
      04E1A8H     LINE      ---       ---     ---   #310
      04E1ACH     LINE      ---       ---     ---   #311
      04E1AEH     LINE      ---       ---     ---   #312
      04E1B2H     LINE      ---       ---     ---   #313
      04E1B4H     LINE      ---       ---     ---   #314
      04E1B8H     LINE      ---       ---     ---   #317
L166 LINKER/LOCATER V5.25                                                             04/03/2017  17:18:59  PAGE 26


      04E1BCH     LINE      ---       ---     ---   #318
      04E1C0H     LINE      ---       ---     ---   #322
      ---         BLOCKEND  LVL=0     ---     ---   

      04E1C2H     BLOCK     LVL=0     00CEH   ---   ERASEBLOCK
      04E1C2H     LINE      ---       ---     ---   #328
      04E1C6H     LINE      ---       ---     ---   #329
      04E1CAH     LINE      ---       ---     ---   #330
      04E1CCH     LINE      ---       ---     ---   #331
      04E1CEH     LINE      ---       ---     ---   #333
      04E1D2H     LINE      ---       ---     ---   #334
      04E1D4H     LINE      ---       ---     ---   #335
      04E1D6H     LINE      ---       ---     ---   #337
      04E1D8H     LINE      ---       ---     ---   #338
      04E1DAH     LINE      ---       ---     ---   #339
      04E1DCH     LINE      ---       ---     ---   #340
      04E1DEH     LINE      ---       ---     ---   #341
      04E1E0H     LINE      ---       ---     ---   #342
      04E1E2H     LINE      ---       ---     ---   #343
      04E1E4H     LINE      ---       ---     ---   #345
      04E1E8H     LINE      ---       ---     ---   #346
      04E1ECH     LINE      ---       ---     ---   #347
      04E1EEH     LINE      ---       ---     ---   #349
      04E1F0H     LINE      ---       ---     ---   #350
      04E1F2H     LINE      ---       ---     ---   #351
      04E1F4H     LINE      ---       ---     ---   #352
      04E1F6H     LINE      ---       ---     ---   #355
      04E1F8H     LINE      ---       ---     ---   #356
      04E1FAH     LINE      ---       ---     ---   #357
      04E1FCH     LINE      ---       ---     ---   #358
      04E1FEH     LINE      ---       ---     ---   #360
      04E202H     LINE      ---       ---     ---   #361
      04E204H     LINE      ---       ---     ---   #362
      04E206H     LINE      ---       ---     ---   #364
      04E208H     LINE      ---       ---     ---   #365
      04E20AH     LINE      ---       ---     ---   #366
      04E20CH     LINE      ---       ---     ---   #367
      04E20EH     LINE      ---       ---     ---   #370
      04E210H     LINE      ---       ---     ---   #371
      04E212H     LINE      ---       ---     ---   #372
      04E214H     LINE      ---       ---     ---   #373
      04E216H     LINE      ---       ---     ---   #375
      04E21AH     LINE      ---       ---     ---   #376
      04E21CH     LINE      ---       ---     ---   #377
      04E21EH     LINE      ---       ---     ---   #379
      04E220H     LINE      ---       ---     ---   #380
      04E222H     LINE      ---       ---     ---   #381
      04E224H     LINE      ---       ---     ---   #382
      04E226H     LINE      ---       ---     ---   #385
      04E228H     LINE      ---       ---     ---   #386
      04E22AH     LINE      ---       ---     ---   #387
      04E22CH     LINE      ---       ---     ---   #388
      04E22EH     LINE      ---       ---     ---   #390
      04E232H     LINE      ---       ---     ---   #391
      04E234H     LINE      ---       ---     ---   #392
      04E236H     LINE      ---       ---     ---   #394
      04E238H     LINE      ---       ---     ---   #395
L166 LINKER/LOCATER V5.25                                                             04/03/2017  17:18:59  PAGE 27


      04E23AH     LINE      ---       ---     ---   #396
      04E23CH     LINE      ---       ---     ---   #397
      04E23EH     LINE      ---       ---     ---   #399
      04E240H     LINE      ---       ---     ---   #400
      04E242H     LINE      ---       ---     ---   #401
      04E244H     LINE      ---       ---     ---   #402
      04E246H     LINE      ---       ---     ---   #404
      04E24AH     LINE      ---       ---     ---   #405
      04E24CH     LINE      ---       ---     ---   #406
      04E24EH     LINE      ---       ---     ---   #408
      04E250H     LINE      ---       ---     ---   #409
      04E252H     LINE      ---       ---     ---   #410
      04E254H     LINE      ---       ---     ---   #411
      04E256H     LINE      ---       ---     ---   #413
      04E258H     LINE      ---       ---     ---   #414
      04E25AH     LINE      ---       ---     ---   #415
      04E25CH     LINE      ---       ---     ---   #416
      04E25EH     LINE      ---       ---     ---   #418
      04E262H     LINE      ---       ---     ---   #419
      04E264H     LINE      ---       ---     ---   #420
      04E266H     LINE      ---       ---     ---   #422
      04E268H     LINE      ---       ---     ---   #423
      04E26AH     LINE      ---       ---     ---   #424
      04E26CH     LINE      ---       ---     ---   #425
      04E26EH     LINE      ---       ---     ---   #427
      04E270H     LINE      ---       ---     ---   #428
      04E272H     LINE      ---       ---     ---   #429
      04E274H     LINE      ---       ---     ---   #430
      04E276H     LINE      ---       ---     ---   #432
      04E278H     LINE      ---       ---     ---   #433
      04E27AH     LINE      ---       ---     ---   #434
      04E27CH     LINE      ---       ---     ---   #435
      04E27EH     LINE      ---       ---     ---   #437
      04E280H     LINE      ---       ---     ---   #438
      04E282H     LINE      ---       ---     ---   #439
      04E284H     LINE      ---       ---     ---   #440
      04E286H     LINE      ---       ---     ---   #442
      04E288H     LINE      ---       ---     ---   #443
      04E28AH     LINE      ---       ---     ---   #444
      04E28CH     LINE      ---       ---     ---   #445
      04E28EH     LINE      ---       ---     ---   #447
      ---         BLOCKEND  LVL=0     ---     ---   

      04E290H     BLOCK     LVL=0     0026H   ---   FSRCONTROL
      04E290H     LINE      ---       ---     ---   #451
      04E292H     LINE      ---       ---     ---   #452
      04E296H     LINE      ---       ---     ---   #453
      04E29AH     LINE      ---       ---     ---   #454
      04E29CH     LINE      ---       ---     ---   #455
      04E29EH     LINE      ---       ---     ---   #456
      04E2A0H     LINE      ---       ---     ---   #457
      04E2A2H     LINE      ---       ---     ---   #458
      04E2A4H     LINE      ---       ---     ---   #459
      04E2A6H     LINE      ---       ---     ---   #461
      04E2A8H     LINE      ---       ---     ---   #462
      04E2AAH     LINE      ---       ---     ---   #463
      04E2ACH     LINE      ---       ---     ---   #465
L166 LINKER/LOCATER V5.25                                                             04/03/2017  17:18:59  PAGE 28


      04E2AEH     LINE      ---       ---     ---   #466
      04E2B2H     LINE      ---       ---     ---   #467
      04E2B4H     LINE      ---       ---     ---   #468
      04E2ACH     SYMBOL    LABEL     ---     ---   FSRL1
      04E2A6H     SYMBOL    LABEL     ---     ---   FSRL2
      ---         BLOCKEND  LVL=0     ---     ---   

      04E2B6H     BLOCK     LVL=0     008AH   ---   WRITEWORD
      04E2B6H     LINE      ---       ---     ---   #475
      04E2B8H     LINE      ---       ---     ---   #476
      04E2BCH     LINE      ---       ---     ---   #477
      04E2C0H     LINE      ---       ---     ---   #478
      04E2C2H     LINE      ---       ---     ---   #479
      04E2C4H     LINE      ---       ---     ---   #480
      04E2C8H     LINE      ---       ---     ---   #481
      04E2CAH     LINE      ---       ---     ---   #482
      04E2CCH     LINE      ---       ---     ---   #483
      04E2CEH     LINE      ---       ---     ---   #484
      04E2D0H     LINE      ---       ---     ---   #485
      04E2D2H     LINE      ---       ---     ---   #486
      04E2D4H     LINE      ---       ---     ---   #487
      04E2D6H     LINE      ---       ---     ---   #488
      04E2D8H     LINE      ---       ---     ---   #489
      04E2DAH     LINE      ---       ---     ---   #490
      04E2DCH     LINE      ---       ---     ---   #491
      04E2DEH     LINE      ---       ---     ---   #492
      04E2E2H     LINE      ---       ---     ---   #493
      04E2E6H     LINE      ---       ---     ---   #494
      04E2E8H     LINE      ---       ---     ---   #495
      04E2EAH     LINE      ---       ---     ---   #496
      04E2ECH     LINE      ---       ---     ---   #497
      04E2EEH     LINE      ---       ---     ---   #498
      04E2F0H     LINE      ---       ---     ---   #499
      04E2F4H     LINE      ---       ---     ---   #500
      04E2F6H     LINE      ---       ---     ---   #501
      04E2F8H     LINE      ---       ---     ---   #502
      04E2FAH     LINE      ---       ---     ---   #503
      04E2FCH     LINE      ---       ---     ---   #504
      04E2FEH     LINE      ---       ---     ---   #505
      04E300H     LINE      ---       ---     ---   #506
      04E304H     LINE      ---       ---     ---   #507
      04E306H     LINE      ---       ---     ---   #508
      04E308H     LINE      ---       ---     ---   #509
      04E30AH     LINE      ---       ---     ---   #510
      04E30CH     LINE      ---       ---     ---   #511
      04E30EH     LINE      ---       ---     ---   #512
      04E310H     LINE      ---       ---     ---   #513
      04E312H     LINE      ---       ---     ---   #514
      04E314H     LINE      ---       ---     ---   #515
      04E316H     LINE      ---       ---     ---   #516
      04E318H     LINE      ---       ---     ---   #517
      04E31AH     LINE      ---       ---     ---   #518
      04E31CH     LINE      ---       ---     ---   #519
      04E31EH     LINE      ---       ---     ---   #520
      04E320H     LINE      ---       ---     ---   #521
      04E322H     LINE      ---       ---     ---   #522
      04E324H     LINE      ---       ---     ---   #523
L166 LINKER/LOCATER V5.25                                                             04/03/2017  17:18:59  PAGE 29


      04E326H     LINE      ---       ---     ---   #524
      04E328H     LINE      ---       ---     ---   #525
      04E32AH     LINE      ---       ---     ---   #526
      04E32CH     LINE      ---       ---     ---   #527
      04E32EH     LINE      ---       ---     ---   #528
      04E330H     LINE      ---       ---     ---   #529
      04E332H     LINE      ---       ---     ---   #530
      04E334H     LINE      ---       ---     ---   #531
      04E336H     LINE      ---       ---     ---   #532
      04E338H     LINE      ---       ---     ---   #533
      04E33AH     LINE      ---       ---     ---   #534
      04E33CH     LINE      ---       ---     ---   #535
      04E33EH     LINE      ---       ---     ---   #536
      ---         BLOCKEND  LVL=0     ---     ---   
      020916H     PUBLIC    LABEL     ---     ---   Protocol_DoseRateMsg
      020958H     PUBLIC    LABEL     ---     ---   Protocol_StartMsg
      020784H     PUBLIC    LABEL     ---     ---   Protocol_SendDataMsg
      02076EH     PUBLIC    LABEL     ---     ---   Protocol_SetRangeValue
      020782H     PUBLIC    LABEL     ---     ---   Protocol_TransmitMsgCallback
      020776H     PUBLIC    LABEL     ---     ---   Protocol_GetRangeValue
      0208A2H     PUBLIC    LABEL     ---     ---   Protocol_CounterMsg
      0207EAH     PUBLIC    LABEL     ---     ---   Protocol_ResponseDataPackaje
      020978H     PUBLIC    LABEL     ---     ---   Protocol_ReceiveMsgCallback
      020968H     PUBLIC    LABEL     ---     ---   Protocol_WDTRestartMsg
      020808H     PUBLIC    LABEL     ---     ---   Protocol_ConfirmStopData
      020826H     PUBLIC    LABEL     ---     ---   Protocol_HeaderDataMsg
      02075EH     PUBLIC    LABEL     ---     ---   Protocol_Initialization
      02077CH     PUBLIC    LABEL     ---     ---   Protocol_GetAutoModeState
      0207B4H     PUBLIC    LABEL     ---     ---   Protocol_GetDataMsg
      004000H     PUBLIC    VAR       ---     ---   mResetResponse
      004008H     PUBLIC    VAR       ---     ---   mWDTRestartResponse
      0514D4H     PUBLIC    VAR       ---     ---   timeSpan
      0514D6H     PUBLIC    VAR       ---     ---   autoMode
      0514D8H     PUBLIC    VAR       ---     ---   rangeValue
      0514D7H     SYMBOL    VAR       ---     ---   dataMsgCounter

      02075EH     BLOCK     LVL=0     0010H   ---   Protocol_Initialization
      02075EH     LINE      ---       ---     ---   #18
      02075EH     LINE      ---       ---     ---   #20
      020762H     LINE      ---       ---     ---   #21
      020768H     LINE      ---       ---     ---   #23
      02076CH     LINE      ---       ---     ---   #24
      ---         BLOCKEND  LVL=0     ---     ---   

      02076EH     BLOCK     LVL=0     0008H   ---   Protocol_SetRangeValue
      000048H     SYMBOL    REG       ---     ---   Value
      02076EH     LINE      ---       ---     ---   #26
      02076EH     LINE      ---       ---     ---   #28
      020774H     LINE      ---       ---     ---   #29
      ---         BLOCKEND  LVL=0     ---     ---   

      020776H     BLOCK     LVL=0     0006H   ---   Protocol_GetRangeValue
      020776H     LINE      ---       ---     ---   #31
      020776H     LINE      ---       ---     ---   #33
      02077AH     LINE      ---       ---     ---   #34
      ---         BLOCKEND  LVL=0     ---     ---   

L166 LINKER/LOCATER V5.25                                                             04/03/2017  17:18:59  PAGE 30


      02077CH     BLOCK     LVL=0     0006H   ---   Protocol_GetAutoModeState
      02077CH     LINE      ---       ---     ---   #35
      02077CH     LINE      ---       ---     ---   #37
      020780H     LINE      ---       ---     ---   #38
      ---         BLOCKEND  LVL=0     ---     ---   

      020782H     BLOCK     LVL=0     0002H   ---   Protocol_TransmitMsgCallback
      000008H     SYMBOL    REG       ---     ---   canID
      020782H     LINE      ---       ---     ---   #40
      020782H     LINE      ---       ---     ---   #53
      ---         BLOCKEND  LVL=0     ---     ---   

      020784H     BLOCK     LVL=0     0030H   ---   Protocol_SendDataMsg
      000006H     SYMBOL    REG       ---     ---   pData
      000005H     SYMBOL    REG       ---     ---   pValue
      00004AH     SYMBOL    REG       ---     ---   dataSize
      020788H     BLOCK     LVL=1     002AH   ---   
      00008EH     SYMBOL    REG       ---     ---   pIndex
      ---         BLOCKEND  LVL=1     ---     ---   
      020784H     LINE      ---       ---     ---   #55
      020788H     LINE      ---       ---     ---   #56
      020788H     LINE      ---       ---     ---   #57
      02078CH     LINE      ---       ---     ---   #59
      02079CH     LINE      ---       ---     ---   #61
      0207A2H     LINE      ---       ---     ---   #62
      0207A6H     LINE      ---       ---     ---   #64
      0207B2H     LINE      ---       ---     ---   #65
      ---         BLOCKEND  LVL=0     ---     ---   

      0207B4H     BLOCK     LVL=0     0036H   ---   Protocol_GetDataMsg
      00000FH     SYMBOL    REG       ---     ---   pValue
      00000EH     SYMBOL    REG       ---     ---   pData
      00004DH     SYMBOL    REG       ---     ---   dataSize
      00000BH     SYMBOL    REG       ---     ---   saveState
      0207B4H     LINE      ---       ---     ---   #67
      0207C0H     LINE      ---       ---     ---   #69
      0207D0H     LINE      ---       ---     ---   #70
      0207D8H     LINE      ---       ---     ---   #72
      0207E2H     LINE      ---       ---     ---   #73
      ---         BLOCKEND  LVL=0     ---     ---   

      0207EAH     BLOCK     LVL=0     001EH   ---   Protocol_ResponseDataPackaje
      000008H     SYMBOL    REG       ---     ---   responseState
      0207ECH     BLOCK     LVL=1     0018H   ---   
      000000H     SYMBOL    AUTO      ---     ---   pData
      ---         BLOCKEND  LVL=1     ---     ---   
      0207EAH     LINE      ---       ---     ---   #75
      0207ECH     LINE      ---       ---     ---   #76
      0207ECH     LINE      ---       ---     ---   #78
      0207F2H     LINE      ---       ---     ---   #79
      0207F8H     LINE      ---       ---     ---   #81
      020804H     LINE      ---       ---     ---   #82
      ---         BLOCKEND  LVL=0     ---     ---   

      020808H     BLOCK     LVL=0     001EH   ---   Protocol_ConfirmStopData
      02080AH     BLOCK     LVL=1     0018H   ---   
      000000H     SYMBOL    AUTO      ---     ---   pData
L166 LINKER/LOCATER V5.25                                                             04/03/2017  17:18:59  PAGE 31


      ---         BLOCKEND  LVL=1     ---     ---   
      020808H     LINE      ---       ---     ---   #84
      02080AH     LINE      ---       ---     ---   #85
      02080AH     LINE      ---       ---     ---   #87
      020810H     LINE      ---       ---     ---   #88
      020816H     LINE      ---       ---     ---   #90
      020822H     LINE      ---       ---     ---   #91
      ---         BLOCKEND  LVL=0     ---     ---   

      020826H     BLOCK     LVL=0     007CH   ---   Protocol_HeaderDataMsg
      000006H     SYMBOL    REG       ---     ---   counterRate
      02082CH     BLOCK     LVL=1     0070H   ---   
      000000H     SYMBOL    AUTO      ---     ---   pData
      ---         BLOCKEND  LVL=1     ---     ---   
      020826H     LINE      ---       ---     ---   #94
      02082CH     LINE      ---       ---     ---   #95
      02082CH     LINE      ---       ---     ---   #98
      020830H     LINE      ---       ---     ---   #99
      020842H     LINE      ---       ---     ---   #101
      020848H     LINE      ---       ---     ---   #102
      020850H     LINE      ---       ---     ---   #103
      02085CH     LINE      ---       ---     ---   #104
      020866H     LINE      ---       ---     ---   #105
      02086CH     LINE      ---       ---     ---   #107
      020870H     LINE      ---       ---     ---   #108
      020878H     LINE      ---       ---     ---   #110
      02087EH     LINE      ---       ---     ---   #112
      020888H     LINE      ---       ---     ---   #113
      020890H     LINE      ---       ---     ---   #116
      02089CH     LINE      ---       ---     ---   #117
      ---         BLOCKEND  LVL=0     ---     ---   

      0208A2H     BLOCK     LVL=0     0074H   ---   Protocol_CounterMsg
      000006H     SYMBOL    REG       ---     ---   pData
      0208A8H     BLOCK     LVL=1     0068H   ---   
      000000H     SYMBOL    AUTO      ---     ---   pCanData
      ---         BLOCKEND  LVL=1     ---     ---   
      0208A2H     LINE      ---       ---     ---   #118
      0208A8H     LINE      ---       ---     ---   #119
      0208A8H     LINE      ---       ---     ---   #121
      0208BCH     LINE      ---       ---     ---   #123
      0208C4H     LINE      ---       ---     ---   #124
      0208D4H     LINE      ---       ---     ---   #125
      0208D6H     LINE      ---       ---     ---   #126
      0208DAH     LINE      ---       ---     ---   #127
      0208EEH     LINE      ---       ---     ---   #128
      0208F0H     LINE      ---       ---     ---   #130
      020904H     LINE      ---       ---     ---   #131
      020904H     LINE      ---       ---     ---   #132
      020910H     LINE      ---       ---     ---   #134
      ---         BLOCKEND  LVL=0     ---     ---   

      020916H     BLOCK     LVL=0     0042H   ---   Protocol_DoseRateMsg
      000008H     SYMBOL    AUTO      ---     ---   doseValue
      02091EH     BLOCK     LVL=1     0034H   ---   
      000000H     SYMBOL    AUTO      ---     ---   pData
      ---         BLOCKEND  LVL=1     ---     ---   
L166 LINKER/LOCATER V5.25                                                             04/03/2017  17:18:59  PAGE 32


      020916H     LINE      ---       ---     ---   #135
      02091EH     LINE      ---       ---     ---   #136
      02091EH     LINE      ---       ---     ---   #139
      020930H     LINE      ---       ---     ---   #140
      020946H     LINE      ---       ---     ---   #142
      020952H     LINE      ---       ---     ---   #143
      ---         BLOCKEND  LVL=0     ---     ---   

      020958H     BLOCK     LVL=0     0010H   ---   Protocol_StartMsg
      020958H     LINE      ---       ---     ---   #144
      020958H     LINE      ---       ---     ---   #146
      020966H     LINE      ---       ---     ---   #147
      ---         BLOCKEND  LVL=0     ---     ---   

      020968H     BLOCK     LVL=0     0010H   ---   Protocol_WDTRestartMsg
      020968H     LINE      ---       ---     ---   #148
      020968H     LINE      ---       ---     ---   #150
      020976H     LINE      ---       ---     ---   #151
      ---         BLOCKEND  LVL=0     ---     ---   

      020978H     BLOCK     LVL=0     045CH   ---   Protocol_ReceiveMsgCallback
      00004EH     SYMBOL    REG       ---     ---   devID
      00000DH     SYMBOL    REG       ---     ---   pData
      020982H     BLOCK     LVL=1     044AH   ---   
      000000H     SYMBOL    AUTO      ---     ---   x
      ---         BLOCKEND  LVL=1     ---     ---   
      020978H     LINE      ---       ---     ---   #153
      020982H     LINE      ---       ---     ---   #154
      020982H     LINE      ---       ---     ---   #155
      020986H     LINE      ---       ---     ---   #156
      02098CH     LINE      ---       ---     ---   #158
      020994H     LINE      ---       ---     ---   #161
      020998H     LINE      ---       ---     ---   #162
      02099CH     LINE      ---       ---     ---   #164
      0209A4H     LINE      ---       ---     ---   #166
      0209C2H     LINE      ---       ---     ---   #168
      0209C2H     LINE      ---       ---     ---   #170
      020A40H     LINE      ---       ---     ---   #172
      020A40H     LINE      ---       ---     ---   #174
      020A50H     LINE      ---       ---     ---   #176
      020A50H     LINE      ---       ---     ---   #178
      020A60H     LINE      ---       ---     ---   #179
      020A70H     LINE      ---       ---     ---   #180
      020A80H     LINE      ---       ---     ---   #181
      020A90H     LINE      ---       ---     ---   #183
      020AA0H     LINE      ---       ---     ---   #184
      020AB0H     LINE      ---       ---     ---   #185
      020AC0H     LINE      ---       ---     ---   #187
      020AD0H     LINE      ---       ---     ---   #188
      020AE0H     LINE      ---       ---     ---   #189
      020AF0H     LINE      ---       ---     ---   #190
      020B00H     LINE      ---       ---     ---   #191
      020B10H     LINE      ---       ---     ---   #193
      020B20H     LINE      ---       ---     ---   #194
      020B30H     LINE      ---       ---     ---   #195
      020B40H     LINE      ---       ---     ---   #199
      020B50H     LINE      ---       ---     ---   #200
L166 LINKER/LOCATER V5.25                                                             04/03/2017  17:18:59  PAGE 33


      020B60H     LINE      ---       ---     ---   #201
      020B70H     LINE      ---       ---     ---   #202
      020B80H     LINE      ---       ---     ---   #203
      020B90H     LINE      ---       ---     ---   #204
      020BA0H     LINE      ---       ---     ---   #205
      020BB0H     LINE      ---       ---     ---   #206
      020BC0H     LINE      ---       ---     ---   #208
      020BC0H     LINE      ---       ---     ---   #210
      020BC6H     LINE      ---       ---     ---   #211
      020BCEH     LINE      ---       ---     ---   #212
      020BD4H     LINE      ---       ---     ---   #213
      020BE0H     LINE      ---       ---     ---   #214
      020BE0H     LINE      ---       ---     ---   #216
      020BE0H     LINE      ---       ---     ---   #217
      020BE4H     LINE      ---       ---     ---   #219
      020BE4H     LINE      ---       ---     ---   #221
      020C46H     LINE      ---       ---     ---   #223
      020C58H     LINE      ---       ---     ---   #225
      020C6AH     LINE      ---       ---     ---   #226
      020C7CH     LINE      ---       ---     ---   #227
      020C8EH     LINE      ---       ---     ---   #228
      020C8EH     LINE      ---       ---     ---   #230
      020C9CH     LINE      ---       ---     ---   #231
      020CA2H     LINE      ---       ---     ---   #232
      020CACH     LINE      ---       ---     ---   #234
      020CB0H     LINE      ---       ---     ---   #235
      020CB4H     LINE      ---       ---     ---   #237
      020CC6H     LINE      ---       ---     ---   #238
      020CD6H     LINE      ---       ---     ---   #239
      020CE6H     LINE      ---       ---     ---   #241
      020CF6H     LINE      ---       ---     ---   #242
      020D06H     LINE      ---       ---     ---   #243
      020D16H     LINE      ---       ---     ---   #244
      020D26H     LINE      ---       ---     ---   #245
      020D36H     LINE      ---       ---     ---   #246
      020D46H     LINE      ---       ---     ---   #247
      020D56H     LINE      ---       ---     ---   #248
      020D66H     LINE      ---       ---     ---   #250
      020D76H     LINE      ---       ---     ---   #251
      020D86H     LINE      ---       ---     ---   #252
      020D96H     LINE      ---       ---     ---   #254
      020D96H     LINE      ---       ---     ---   #256
      020D9CH     LINE      ---       ---     ---   #257
      020DA4H     LINE      ---       ---     ---   #258
      020DAAH     LINE      ---       ---     ---   #259
      020DB6H     LINE      ---       ---     ---   #260
      020DB6H     LINE      ---       ---     ---   #261
      020DB6H     LINE      ---       ---     ---   #264
      020DB8H     LINE      ---       ---     ---   #266
      020DB8H     LINE      ---       ---     ---   #268
      020DBEH     LINE      ---       ---     ---   #269
      020DC2H     LINE      ---       ---     ---   #272
      020DC4H     LINE      ---       ---     ---   #274
      020DC4H     LINE      ---       ---     ---   #277
      020DC8H     LINE      ---       ---     ---   #278
      020DCCH     LINE      ---       ---     ---   #282
      020DCCH     LINE      ---       ---     ---   #283
L166 LINKER/LOCATER V5.25                                                             04/03/2017  17:18:59  PAGE 34


      020DCCH     LINE      ---       ---     ---   #284
      020DCCH     LINE      ---       ---     ---   #288
      020DCCH     LINE      ---       ---     ---   #290
      ---         BLOCKEND  LVL=0     ---     ---   
      020FC6H     PUBLIC    LABEL     ---     ---   CAN_Init
      020E82H     PUBLIC    LABEL     ---     ---   CAN_Interrupt3
      020E80H     PUBLIC    LABEL     ---     ---   CAN_Interrupt2
      020DE0H     PUBLIC    LABEL     ---     ---   CAN_Interrupt1
      020DD4H     PUBLIC    LABEL     ---     ---   CAN_Interrupt0
      02120EH     PUBLIC    LABEL     ---     ---   CAN_SendMessage
      0514D9H     SYMBOL    VAR       ---     ---   txEnable

      020DD4H     BLOCK     LVL=0     000CH   ---   CAN_Interrupt0
      020DD4H     LINE      ---       ---     ---   #8
      020DD6H     LINE      ---       ---     ---   #10
      020DDCH     LINE      ---       ---     ---   #16
      ---         BLOCKEND  LVL=0     ---     ---   

      020DE0H     BLOCK     LVL=0     00A0H   ---   CAN_Interrupt1
      020E0AH     BLOCK     LVL=1     004EH   ---   
      00000EH     SYMBOL    REG       ---     ---   regID
      00000DH     SYMBOL    REG       ---     ---   msgData
      ---         BLOCKEND  LVL=1     ---     ---   
      020DE0H     LINE      ---       ---     ---   #18
      020E0AH     LINE      ---       ---     ---   #19
      020E0AH     LINE      ---       ---     ---   #20
      020E14H     LINE      ---       ---     ---   #21
      020E20H     LINE      ---       ---     ---   #22
      020E24H     LINE      ---       ---     ---   #24
      020E2AH     LINE      ---       ---     ---   #25
      020E32H     LINE      ---       ---     ---   #26
      020E3AH     LINE      ---       ---     ---   #27
      020E42H     LINE      ---       ---     ---   #29
      020E4AH     LINE      ---       ---     ---   #31
      020E58H     LINE      ---       ---     ---   #32
      ---         BLOCKEND  LVL=0     ---     ---   

      020E80H     BLOCK     LVL=0     0002H   ---   CAN_Interrupt2
      020E80H     LINE      ---       ---     ---   #36
      020E80H     LINE      ---       ---     ---   #48
      ---         BLOCKEND  LVL=0     ---     ---   

      020E82H     BLOCK     LVL=0     0144H   ---   CAN_Interrupt3
      020EB0H     BLOCK     LVL=1     00EAH   ---   
      00000EH     SYMBOL    REG       ---     ---   pReprogWord
      000000H     SYMBOL    AUTO      ---     ---   msgData
      000008H     SYMBOL    AUTO      ---     ---   serialNumber
      ---         BLOCKEND  LVL=1     ---     ---   
      020E82H     LINE      ---       ---     ---   #49
      020EB0H     LINE      ---       ---     ---   #50
      020EB0H     LINE      ---       ---     ---   #51
      020EBAH     LINE      ---       ---     ---   #54
      020EC2H     LINE      ---       ---     ---   #56
      020EC8H     LINE      ---       ---     ---   #57
      020ED0H     LINE      ---       ---     ---   #58
      020ED8H     LINE      ---       ---     ---   #59
      020EE0H     LINE      ---       ---     ---   #63
L166 LINKER/LOCATER V5.25                                                             04/03/2017  17:18:59  PAGE 35


      020F26H     LINE      ---       ---     ---   #67
      020F3AH     LINE      ---       ---     ---   #69
      020F40H     LINE      ---       ---     ---   #71
      020F4AH     LINE      ---       ---     ---   #82
      020F4AH     LINE      ---       ---     ---   #83
      020F62H     LINE      ---       ---     ---   #84
      020F76H     LINE      ---       ---     ---   #86
      020F8EH     LINE      ---       ---     ---   #88
      020F96H     LINE      ---       ---     ---   #90
      020F9AH     LINE      ---       ---     ---   #91
      020F9AH     LINE      ---       ---     ---   #97
      ---         BLOCKEND  LVL=0     ---     ---   

      020FC6H     BLOCK     LVL=0     0248H   ---   CAN_Init
      020FC6H     LINE      ---       ---     ---   #101
      020FC6H     LINE      ---       ---     ---   #103
      020FCCH     LINE      ---       ---     ---   #105
      020FD0H     LINE      ---       ---     ---   #106
      020FDAH     LINE      ---       ---     ---   #107
      020FE4H     LINE      ---       ---     ---   #110
      020FEAH     LINE      ---       ---     ---   #111
      020FEEH     LINE      ---       ---     ---   #112
      020FF2H     LINE      ---       ---     ---   #113
      020FF6H     LINE      ---       ---     ---   #115
      021004H     LINE      ---       ---     ---   #116
      02100EH     LINE      ---       ---     ---   #117
      02101AH     LINE      ---       ---     ---   #118
      021022H     LINE      ---       ---     ---   #133
      02102AH     LINE      ---       ---     ---   #134
      02102EH     LINE      ---       ---     ---   #135
      021032H     LINE      ---       ---     ---   #136
      02103AH     LINE      ---       ---     ---   #153
      021042H     LINE      ---       ---     ---   #154
      021046H     LINE      ---       ---     ---   #155
      02104CH     LINE      ---       ---     ---   #156
      021054H     LINE      ---       ---     ---   #159
      02105CH     LINE      ---       ---     ---   #160
      021060H     LINE      ---       ---     ---   #161
      021066H     LINE      ---       ---     ---   #162
      02106EH     LINE      ---       ---     ---   #165
      021076H     LINE      ---       ---     ---   #166
      02107AH     LINE      ---       ---     ---   #167
      021080H     LINE      ---       ---     ---   #168
      021088H     LINE      ---       ---     ---   #171
      021090H     LINE      ---       ---     ---   #173
      021098H     LINE      ---       ---     ---   #174
      0210A0H     LINE      ---       ---     ---   #176
      0210A8H     LINE      ---       ---     ---   #177
      0210B0H     LINE      ---       ---     ---   #179
      0210B8H     LINE      ---       ---     ---   #180
      0210C0H     LINE      ---       ---     ---   #182
      0210C8H     LINE      ---       ---     ---   #183
      0210D0H     LINE      ---       ---     ---   #185
      0210D8H     LINE      ---       ---     ---   #186
      0210E0H     LINE      ---       ---     ---   #188
      0210E8H     LINE      ---       ---     ---   #189
      0210F0H     LINE      ---       ---     ---   #193
L166 LINKER/LOCATER V5.25                                                             04/03/2017  17:18:59  PAGE 36


      0210F8H     LINE      ---       ---     ---   #195
      021100H     LINE      ---       ---     ---   #196
      02110CH     LINE      ---       ---     ---   #197
      021118H     LINE      ---       ---     ---   #200
      021120H     LINE      ---       ---     ---   #201
      02112CH     LINE      ---       ---     ---   #202
      021138H     LINE      ---       ---     ---   #205
      021140H     LINE      ---       ---     ---   #206
      02114CH     LINE      ---       ---     ---   #207
      021158H     LINE      ---       ---     ---   #210
      021160H     LINE      ---       ---     ---   #211
      02116CH     LINE      ---       ---     ---   #212
      021178H     LINE      ---       ---     ---   #215
      021180H     LINE      ---       ---     ---   #216
      02118CH     LINE      ---       ---     ---   #217
      021198H     LINE      ---       ---     ---   #219
      0211A0H     LINE      ---       ---     ---   #220
      0211ACH     LINE      ---       ---     ---   #221
      0211B8H     LINE      ---       ---     ---   #223
      0211C0H     LINE      ---       ---     ---   #224
      0211C6H     LINE      ---       ---     ---   #226
      0211CEH     LINE      ---       ---     ---   #227
      0211D4H     LINE      ---       ---     ---   #229
      0211DCH     LINE      ---       ---     ---   #230
      0211E2H     LINE      ---       ---     ---   #232
      0211EAH     LINE      ---       ---     ---   #233
      0211F0H     LINE      ---       ---     ---   #235
      0211F8H     LINE      ---       ---     ---   #236
      0211FEH     LINE      ---       ---     ---   #238
      021206H     LINE      ---       ---     ---   #239
      02120CH     LINE      ---       ---     ---   #241
      ---         BLOCKEND  LVL=0     ---     ---   

      02120EH     BLOCK     LVL=0     0070H   ---   CAN_SendMessage
      000008H     SYMBOL    REG       ---     ---   id
      000009H     SYMBOL    REG       ---     ---   pData
      00004AH     SYMBOL    REG       ---     ---   Len
      02120EH     BLOCK     LVL=1     006EH   ---   
      00000BH     SYMBOL    REG       ---     ---   moData
      00008EH     SYMBOL    REG       ---     ---   index
      ---         BLOCKEND  LVL=1     ---     ---   
      02120EH     LINE      ---       ---     ---   #244
      02120EH     LINE      ---       ---     ---   #245
      02120EH     LINE      ---       ---     ---   #246
      021212H     LINE      ---       ---     ---   #247
      021214H     LINE      ---       ---     ---   #257
      021220H     LINE      ---       ---     ---   #258
      021230H     LINE      ---       ---     ---   #260
      02123CH     LINE      ---       ---     ---   #261
      02124AH     LINE      ---       ---     ---   #264
      02124EH     LINE      ---       ---     ---   #266
      021250H     LINE      ---       ---     ---   #268
      02125EH     LINE      ---       ---     ---   #269
      021266H     LINE      ---       ---     ---   #271
      02126AH     LINE      ---       ---     ---   #273
      021272H     LINE      ---       ---     ---   #275
      02127CH     LINE      ---       ---     ---   #276
L166 LINKER/LOCATER V5.25                                                             04/03/2017  17:18:59  PAGE 37


      ---         BLOCKEND  LVL=0     ---     ---   
      0216C6H     PUBLIC    LABEL     ---     ---   SETTINGS_Init
      021788H     PUBLIC    LABEL     ---     ---   SETTINGS_Save
      0217FAH     PUBLIC    LABEL     ---     ---   SETTINGS_Load
      0216D4H     PUBLIC    LABEL     ---     ---   SETTINGS_Default
      05148AH     PUBLIC    VAR       ---     ---   MainSettings

      0216C6H     BLOCK     LVL=0     000EH   ---   SETTINGS_Init
      0216C6H     LINE      ---       ---     ---   #6
      0216C6H     LINE      ---       ---     ---   #9
      0216CEH     LINE      ---       ---     ---   #11
      0216D0H     LINE      ---       ---     ---   #12
      0216D2H     LINE      ---       ---     ---   #14
      ---         BLOCKEND  LVL=0     ---     ---   

      0216D4H     BLOCK     LVL=0     00B4H   ---   SETTINGS_Default
      0216D4H     BLOCK     LVL=1     00B2H   ---   
      000008H     SYMBOL    REG       ---     ---   i
      ---         BLOCKEND  LVL=1     ---     ---   
      0216D4H     LINE      ---       ---     ---   #17
      0216D4H     LINE      ---       ---     ---   #18
      0216D4H     LINE      ---       ---     ---   #19
      0216D6H     LINE      ---       ---     ---   #21
      0216DEH     LINE      ---       ---     ---   #22
      0216E2H     LINE      ---       ---     ---   #23
      0216E8H     LINE      ---       ---     ---   #26
      0216EAH     LINE      ---       ---     ---   #27
      0216EEH     LINE      ---       ---     ---   #29
      0216F2H     LINE      ---       ---     ---   #30
      021702H     LINE      ---       ---     ---   #31
      02170EH     LINE      ---       ---     ---   #32
      021716H     LINE      ---       ---     ---   #34
      021726H     LINE      ---       ---     ---   #35
      021736H     LINE      ---       ---     ---   #36
      021746H     LINE      ---       ---     ---   #38
      02174EH     LINE      ---       ---     ---   #39
      021756H     LINE      ---       ---     ---   #40
      02175EH     LINE      ---       ---     ---   #41
      021766H     LINE      ---       ---     ---   #42
      02176EH     LINE      ---       ---     ---   #44
      021776H     LINE      ---       ---     ---   #45
      021786H     LINE      ---       ---     ---   #48
      ---         BLOCKEND  LVL=0     ---     ---   

      021788H     BLOCK     LVL=0     0072H   ---   SETTINGS_Save
      021790H     BLOCK     LVL=1     0060H   ---   
      00000DH     SYMBOL    REG       ---     ---   i
      00000FH     SYMBOL    REG       ---     ---   addr_counter
      000000H     SYMBOL    AUTO      ---     ---   pSettings
      00000EH     SYMBOL    REG       ---     ---   chkSum
      ---         BLOCKEND  LVL=1     ---     ---   
      021788H     LINE      ---       ---     ---   #50
      021790H     LINE      ---       ---     ---   #51
      021790H     LINE      ---       ---     ---   #52
      021794H     LINE      ---       ---     ---   #54
      02179AH     LINE      ---       ---     ---   #55
      02179AH     LINE      ---       ---     ---   #57
L166 LINKER/LOCATER V5.25                                                             04/03/2017  17:18:59  PAGE 38


      02179CH     LINE      ---       ---     ---   #59
      02179CH     LINE      ---       ---     ---   #60
      0217AAH     LINE      ---       ---     ---   #62
      0217B4H     LINE      ---       ---     ---   #63
      0217B8H     LINE      ---       ---     ---   #65
      0217C4H     LINE      ---       ---     ---   #66
      0217C8H     LINE      ---       ---     ---   #68
      0217CAH     LINE      ---       ---     ---   #70
      0217E2H     LINE      ---       ---     ---   #71
      0217E6H     LINE      ---       ---     ---   #74
      0217E8H     LINE      ---       ---     ---   #75
      0217F0H     LINE      ---       ---     ---   #76
      ---         BLOCKEND  LVL=0     ---     ---   

      0217FAH     BLOCK     LVL=0     0068H   ---   SETTINGS_Load
      0217FAH     BLOCK     LVL=1     0066H   ---   
      000007H     SYMBOL    REG       ---     ---   i
      000002H     SYMBOL    REG       ---     ---   addressChkSum
      00000AH     SYMBOL    REG       ---     ---   addressData
      00000CH     SYMBOL    REG       ---     ---   pSettings
      000009H     SYMBOL    REG       ---     ---   dataSize
      000008H     SYMBOL    REG       ---     ---   chkSum
      ---         BLOCKEND  LVL=1     ---     ---   
      0217FAH     LINE      ---       ---     ---   #77
      0217FAH     LINE      ---       ---     ---   #78
      0217FAH     LINE      ---       ---     ---   #79
      0217FCH     LINE      ---       ---     ---   #80
      021806H     LINE      ---       ---     ---   #81
      02180EH     LINE      ---       ---     ---   #83
      021814H     LINE      ---       ---     ---   #84
      021818H     LINE      ---       ---     ---   #85
      02181AH     LINE      ---       ---     ---   #87
      02181CH     LINE      ---       ---     ---   #88
      02182AH     LINE      ---       ---     ---   #90
      021832H     LINE      ---       ---     ---   #92
      02183AH     LINE      ---       ---     ---   #93
      02183EH     LINE      ---       ---     ---   #96
      021842H     LINE      ---       ---     ---   #97
      021854H     LINE      ---       ---     ---   #99
      02185EH     LINE      ---       ---     ---   #100
      021860H     LINE      ---       ---     ---   #101
      ---         BLOCKEND  LVL=0     ---     ---   
      021930H     PUBLIC    LABEL     ---     ---   FLASH_WriteWord
      021862H     PUBLIC    LABEL     ---     ---   FLASH_EraseSector
      0219BAH     PUBLIC    LABEL     ---     ---   FLASH_FSRControl

      021862H     BLOCK     LVL=0     00CEH   ---   FLASH_EraseSector
      000008H     SYMBOL    REG       ---     ---   sector
      021862H     BLOCK     LVL=1     00CCH   ---   
      00000AH     SYMBOL    REG       ---     ---   Command_1
      000002H     SYMBOL    REG       ---     ---   Command_2
      000004H     SYMBOL    REG       ---     ---   Command_sector
      ---         BLOCKEND  LVL=1     ---     ---   
      021862H     LINE      ---       ---     ---   #3
      021862H     LINE      ---       ---     ---   #4
      021862H     LINE      ---       ---     ---   #5
      02186EH     LINE      ---       ---     ---   #6
L166 LINKER/LOCATER V5.25                                                             04/03/2017  17:18:59  PAGE 39


      021876H     LINE      ---       ---     ---   #8
      021884H     LINE      ---       ---     ---   #10
      02188EH     LINE      ---       ---     ---   #11
      021896H     LINE      ---       ---     ---   #12
      02189EH     LINE      ---       ---     ---   #14
      0218A6H     LINE      ---       ---     ---   #15
      0218AEH     LINE      ---       ---     ---   #16
      0218B6H     LINE      ---       ---     ---   #18
      0218BEH     LINE      ---       ---     ---   #19
      0218C6H     LINE      ---       ---     ---   #20
      0218CEH     LINE      ---       ---     ---   #22
      0218D6H     LINE      ---       ---     ---   #23
      0218DEH     LINE      ---       ---     ---   #24
      0218E6H     LINE      ---       ---     ---   #26
      0218EEH     LINE      ---       ---     ---   #27
      0218F6H     LINE      ---       ---     ---   #28
      0218FEH     LINE      ---       ---     ---   #30
      021906H     LINE      ---       ---     ---   #31
      02190EH     LINE      ---       ---     ---   #32
      021916H     LINE      ---       ---     ---   #33
      02191EH     LINE      ---       ---     ---   #34
      021926H     LINE      ---       ---     ---   #35
      02192EH     LINE      ---       ---     ---   #36
      ---         BLOCKEND  LVL=0     ---     ---   

      021930H     BLOCK     LVL=0     008AH   ---   FLASH_WriteWord
      000008H     SYMBOL    REG       ---     ---   address
      00000AH     SYMBOL    REG       ---     ---   word
      021932H     BLOCK     LVL=1     0084H   ---   
      000002H     SYMBOL    REG       ---     ---   Command_1
      00000CH     SYMBOL    REG       ---     ---   Command_2
      000008H     SYMBOL    REG       ---     ---   Command_sector
      ---         BLOCKEND  LVL=1     ---     ---   
      021930H     LINE      ---       ---     ---   #38
      021932H     LINE      ---       ---     ---   #39
      021932H     LINE      ---       ---     ---   #40
      02193EH     LINE      ---       ---     ---   #41
      021946H     LINE      ---       ---     ---   #43
      021958H     LINE      ---       ---     ---   #45
      021962H     LINE      ---       ---     ---   #46
      02196AH     LINE      ---       ---     ---   #48
      021972H     LINE      ---       ---     ---   #49
      02197AH     LINE      ---       ---     ---   #51
      021982H     LINE      ---       ---     ---   #52
      02198AH     LINE      ---       ---     ---   #54
      02198EH     LINE      ---       ---     ---   #56
      021996H     LINE      ---       ---     ---   #57
      02199EH     LINE      ---       ---     ---   #58
      0219A6H     LINE      ---       ---     ---   #59
      0219AEH     LINE      ---       ---     ---   #60
      0219B6H     LINE      ---       ---     ---   #62
      ---         BLOCKEND  LVL=0     ---     ---   

      0219BAH     BLOCK     LVL=0     0026H   ---   FLASH_FSRControl
      0219BCH     BLOCK     LVL=1     0020H   ---   
      000006H     SYMBOL    REG       ---     ---   FSR
      000000H     SYMBOL    AUTO      ---     ---   Register
L166 LINKER/LOCATER V5.25                                                             04/03/2017  17:18:59  PAGE 40


      ---         BLOCKEND  LVL=1     ---     ---   
      0219BAH     LINE      ---       ---     ---   #63
      0219BCH     LINE      ---       ---     ---   #64
      0219BCH     LINE      ---       ---     ---   #65
      0219C8H     LINE      ---       ---     ---   #66
      0219CEH     LINE      ---       ---     ---   #68
      0219D0H     LINE      ---       ---     ---   #69
      0219D6H     LINE      ---       ---     ---   #70
      0219DCH     LINE      ---       ---     ---   #71
      ---         BLOCKEND  LVL=0     ---     ---   
      021C4CH     PUBLIC    LABEL     ---     ---   System_Reset
      021B9CH     PUBLIC    LABEL     ---     ---   System_RAMTest
      021C36H     PUBLIC    LABEL     ---     ---   System_Delay

      021B9CH     BLOCK     LVL=0     009AH   ---   System_RAMTest
      021BA6H     BLOCK     LVL=1     0084H   ---   
      000000H     SYMBOL    AUTO      ---     ---   cnt
      000004H     SYMBOL    AUTO      ---     ---   temp
      00000EH     SYMBOL    REG       ---     ---   index
      00000DH     SYMBOL    REG       ---     ---   ramStart
      000008H     SYMBOL    AUTO      ---     ---   ramData
      ---         BLOCKEND  LVL=1     ---     ---   
      021B9CH     LINE      ---       ---     ---   #3
      021BA6H     LINE      ---       ---     ---   #4
      021BA6H     LINE      ---       ---     ---   #5
      021BAEH     LINE      ---       ---     ---   #6
      021BB6H     LINE      ---       ---     ---   #7
      021BBAH     LINE      ---       ---     ---   #8
      021BBCH     LINE      ---       ---     ---   #10
      021BC0H     LINE      ---       ---     ---   #11
      021BC0H     LINE      ---       ---     ---   #13
      021BD2H     LINE      ---       ---     ---   #15
      021BD6H     LINE      ---       ---     ---   #17
      021BDEH     LINE      ---       ---     ---   #18
      021BECH     LINE      ---       ---     ---   #22
      021BF0H     LINE      ---       ---     ---   #24
      021BFCH     LINE      ---       ---     ---   #27
      021C02H     LINE      ---       ---     ---   #29
      021C06H     LINE      ---       ---     ---   #30
      021C14H     LINE      ---       ---     ---   #32
      021C28H     LINE      ---       ---     ---   #34
      021C2AH     LINE      ---       ---     ---   #35
      ---         BLOCKEND  LVL=0     ---     ---   

      021C36H     BLOCK     LVL=0     0016H   ---   System_Delay
      000008H     SYMBOL    REG       ---     ---   z
      021C36H     BLOCK     LVL=1     0014H   ---   
      000006H     SYMBOL    REG       ---     ---   x
      ---         BLOCKEND  LVL=1     ---     ---   
      021C36H     LINE      ---       ---     ---   #37
      021C36H     LINE      ---       ---     ---   #39
      021C3CH     LINE      ---       ---     ---   #41
      021C4AH     LINE      ---       ---     ---   #42
      ---         BLOCKEND  LVL=0     ---     ---   

      021C4CH     BLOCK     LVL=0     0006H   ---   System_Reset
      021C4CH     LINE      ---       ---     ---   #43
L166 LINKER/LOCATER V5.25                                                             04/03/2017  17:18:59  PAGE 41


      021C4CH     LINE      ---       ---     ---   #45
      021C50H     LINE      ---       ---     ---   #46
      ---         BLOCKEND  LVL=0     ---     ---   
      021282H     PUBLIC    LABEL     ---     ---   ?C_FPADD
      0212C0H     PUBLIC    LABEL     ---     ---   ?C_FPXSUB
      02127EH     PUBLIC    LABEL     ---     ---   ?C_FPSUB

      02127EH     BLOCK     LVL=0     00E8H   ---   ?C_FPSUB
      ---         BLOCKEND  LVL=0     ---     ---   
      021366H     PUBLIC    LABEL     ---     ---   ?C_FPMUL

      021366H     BLOCK     LVL=0     0094H   ---   ?C_FPMUL
      ---         BLOCKEND  LVL=0     ---     ---   
      0213FAH     PUBLIC    LABEL     ---     ---   ?C_FPDIV

      0213FAH     BLOCK     LVL=0     00C8H   ---   ?C_FPDIV
      ---         BLOCKEND  LVL=0     ---     ---   
      0214C2H     PUBLIC    LABEL     ---     ---   ?C_CASTF

      0214C2H     BLOCK     LVL=0     005CH   ---   ?C_CASTF
      ---         BLOCKEND  LVL=0     ---     ---   
      02151EH     PUBLIC    LABEL     ---     ---   ?C_FCAST

      02151EH     BLOCK     LVL=0     0046H   ---   ?C_FCAST
      ---         BLOCKEND  LVL=0     ---     ---   
      021564H     PUBLIC    LABEL     ---     ---   ?C_FPCMP

      021564H     BLOCK     LVL=0     0082H   ---   ?C_FPCMP
      ---         BLOCKEND  LVL=0     ---     ---   
      0215E6H     PUBLIC    LABEL     ---     ---   ?C_FPGETOPN
      02160CH     PUBLIC    LABEL     ---     ---   ?C_FPNANRSL
      021614H     PUBLIC    LABEL     ---     ---   ?C_FPINFRSL
      021636H     PUBLIC    LABEL     ---     ---   ?C_FPNOERR
      02162CH     PUBLIC    LABEL     ---     ---   ?C_FPRSLNR
      021620H     PUBLIC    LABEL     ---     ---   ?C_FPOPRSL
      021644H     PUBLIC    LABEL     ---     ---   ?C_FPZERRSL
      021644H     PUBLIC    LABEL     ---     ---   ?C_FPUNFRS

      0215E6H     BLOCK     LVL=0     0026H   ---   ?C_FPGETOPN
      ---         BLOCKEND  LVL=0     ---     ---   

      02160CH     BLOCK     LVL=0     0008H   ---   ?C_FPNANRSL
      ---         BLOCKEND  LVL=0     ---     ---   

      021614H     BLOCK     LVL=0     000CH   ---   ?C_FPINFRSL
      ---         BLOCKEND  LVL=0     ---     ---   

      021620H     BLOCK     LVL=0     0022H   ---   ?C_FPOPRSL
      ---         BLOCKEND  LVL=0     ---     ---   

      021642H     BLOCK     LVL=0     0002H   ---   EXIT
      ---         BLOCKEND  LVL=0     ---     ---   

      021644H     BLOCK     LVL=0     0006H   ---   ?C_FPZERRSL
      ---         BLOCKEND  LVL=0     ---     ---   
      000015H     PUBLIC    CONST     ---     ---   ?C_FPPRECISION
      000033H     PUBLIC    CONST     ---     ---   ?C_DPPRECISION
L166 LINKER/LOCATER V5.25                                                             04/03/2017  17:18:59  PAGE 42


      02164AH     PUBLIC    LABEL     ---     ---   ?C_PCASTS

      02164AH     BLOCK     LVL=0     0024H   ---   ?C_PCASTS
      ---         BLOCKEND  LVL=0     ---     ---   
      02166EH     PUBLIC    LABEL     ---     ---   ?C_SCASTP

      02166EH     BLOCK     LVL=0     002AH   ---   ?C_SCASTP
      ---         BLOCKEND  LVL=0     ---     ---   
      021698H     PUBLIC    LABEL     ---     ---   ?C_HCASTS

      021698H     BLOCK     LVL=0     002EH   ---   ?C_HCASTS
      ---         BLOCKEND  LVL=0     ---     ---   
      021D24H     PUBLIC    LABEL     ---     ---   memcpy

      021D24H     BLOCK     LVL=0     000EH   ---   memcpy
      ---         BLOCKEND  LVL=0     ---     ---   
      021D12H     PUBLIC    LABEL     ---     ---   memset
      021CD0H     PUBLIC    LABEL     ---     ---   init_mempool
      00F600H     PUBLIC    VAR       ---     ---   __mp__
      0219E0H     PUBLIC    LABEL     ---     ---   free
      021C52H     PUBLIC    LABEL     ---     ---   malloc
      021CF2H     PUBLIC    LABEL     ---     ---   xmemset



FUNCTION REGISTER MASKS


FUNCTION . . . . . . . . . . . . . . REG MASK
=============================================




INTER-MODULE CROSS-REFERENCE LISTING


NAME . . . . . . . . . . . . . . . REP    TGR  MODULE NAMES
===========================================================

?C_CASTF . . . . . . . . . . . . . LABEL ---  ?C_CASTF  PROCESS  
?C_CLRMEMSECSTART. . . . . . . . . VAR   ---  ** L166 GENERATED **  
?C_DPPRECISION . . . . . . . . . . CONST ---  ?C_FPEQUATES  
?C_FCAST . . . . . . . . . . . . . LABEL ---  ?C_FCAST  PROCESS  
?C_FPADD . . . . . . . . . . . . . LABEL ---  ?C_FPADD  PROCESS  
?C_FPCMP . . . . . . . . . . . . . LABEL ---  ?C_FPCMP  PROCESS  
?C_FPDIV . . . . . . . . . . . . . LABEL ---  ?C_FPDIV  PROCESS  
?C_FPGETOPN. . . . . . . . . . . . LABEL ---  ?C_FPGETOPN  ?C_FPADD  ?C_FPCMP  ?C_FPDIV  ?C_FPMUL  
?C_FPINFRSL. . . . . . . . . . . . LABEL ---  ?C_FPGETOPN  ?C_FPADD  ?C_FPDIV  ?C_FPMUL  
?C_FPMUL . . . . . . . . . . . . . LABEL ---  ?C_FPMUL  PROCESS  
?C_FPNANRSL. . . . . . . . . . . . LABEL ---  ?C_FPGETOPN  ?C_FPADD  ?C_FPDIV  ?C_FPMUL  
?C_FPNOERR . . . . . . . . . . . . LABEL ---  ?C_FPGETOPN  ?C_FPADD  ?C_FPDIV  ?C_FPMUL  
?C_FPOPRSL . . . . . . . . . . . . LABEL ---  ?C_FPGETOPN  ?C_FPADD  ?C_FPDIV  ?C_FPMUL  
?C_FPPRECISION . . . . . . . . . . CONST ---  ?C_FPEQUATES  ?C_FPCMP  
?C_FPRSLNR . . . . . . . . . . . . LABEL ---  ?C_FPGETOPN  ?C_FPADD  ?C_FPDIV  ?C_FPMUL  
?C_FPSUB . . . . . . . . . . . . . LABEL ---  ?C_FPADD  PROCESS  
?C_FPUNFRS . . . . . . . . . . . . LABEL ---  ?C_FPGETOPN  ?C_FPDIV  
L166 LINKER/LOCATER V5.25                                                             04/03/2017  17:18:59  PAGE 43


?C_FPXSUB. . . . . . . . . . . . . LABEL ---  ?C_FPADD  ?C_FPCMP  
?C_FPZERRSL. . . . . . . . . . . . LABEL ---  ?C_FPGETOPN  ?C_FPADD  ?C_FPDIV  ?C_FPMUL  
?C_HCASTS. . . . . . . . . . . . . LABEL ---  ?C_HCASTS  SYSTEM  
?C_INITSECSTART. . . . . . . . . . VAR   ---  ** L166 GENERATED **  
?C_NCONSTBASE. . . . . . . . . . . CONST ---  ** L166 GENERATED **  
?C_NCONSTBASESEG . . . . . . . . . CONST ---  ** L166 GENERATED **  
?C_NDATABASE . . . . . . . . . . . CONST ---  ** L166 GENERATED **  
?C_NDATABASESEG. . . . . . . . . . CONST ---  ** L166 GENERATED **  
?C_PAGEDPP0. . . . . . . . . . . . CONST ---  ** L166 GENERATED **  ?C_STARTUP  
?C_PAGEDPP1. . . . . . . . . . . . CONST ---  ** L166 GENERATED **  ?C_STARTUP  
?C_PAGEDPP2. . . . . . . . . . . . CONST ---  ** L166 GENERATED **  ?C_STARTUP  
?C_PCASTS. . . . . . . . . . . . . LABEL ---  ?C_PCASTS  CAN  
?C_SCASTP. . . . . . . . . . . . . LABEL ---  ?C_SCASTP  CAN  
?C_STARTUP . . . . . . . . . . . . LABEL ---  ?C_STARTUP  MAIN  
?C_SYSSTKBOT . . . . . . . . . . . CONST ---  ?C_STARTUP  
?C_USRSTKBOT . . . . . . . . . . . VAR   ---  ?C_STARTUP  
CAN_Init . . . . . . . . . . . . . LABEL ---  CAN  MAIN  
CAN_Interrupt0 . . . . . . . . . . LABEL ---  CAN  
CAN_Interrupt1 . . . . . . . . . . LABEL ---  CAN  
CAN_Interrupt2 . . . . . . . . . . LABEL ---  CAN  
CAN_Interrupt3 . . . . . . . . . . LABEL ---  CAN  
CAN_SendMessage. . . . . . . . . . LABEL ---  CAN  PROTOCOL  
FLASH_EraseSector. . . . . . . . . LABEL ---  FLASH  SETTINGS  
FLASH_FSRControl . . . . . . . . . LABEL ---  FLASH  SETTINGS  
FLASH_WriteWord. . . . . . . . . . LABEL ---  FLASH  SETTINGS  
MainSettings . . . . . . . . . . . VAR   ---  SETTINGS  PROCESS  PROTOCOL  
Process_CalculateCountingRate. . . LABEL ---  PROCESS  
Process_CalculateCurrentDoseRate . LABEL ---  PROCESS  
Process_EXIN1. . . . . . . . . . . LABEL ---  PROCESS  
Process_EXIN2. . . . . . . . . . . LABEL ---  PROCESS  
Process_EXIN3. . . . . . . . . . . LABEL ---  PROCESS  
Process_EXIN4. . . . . . . . . . . LABEL ---  PROCESS  
Process_EXIN5. . . . . . . . . . . LABEL ---  PROCESS  
Process_EXIN6. . . . . . . . . . . LABEL ---  PROCESS  
Process_EXIN7. . . . . . . . . . . LABEL ---  PROCESS  
Process_EXIN8. . . . . . . . . . . LABEL ---  PROCESS  
Process_Group1IntOff . . . . . . . LABEL ---  PROCESS  
Process_Group2IntOff . . . . . . . LABEL ---  PROCESS  
Process_Group3IntOff . . . . . . . LABEL ---  PROCESS  
Process_Initializetion . . . . . . LABEL ---  PROCESS  MAIN  
Process_MainProc . . . . . . . . . LABEL ---  PROCESS  
Process_Start. . . . . . . . . . . LABEL ---  PROCESS  PROTOCOL  
Process_Stop . . . . . . . . . . . LABEL ---  PROCESS  PROTOCOL  
Protocol_ConfirmStopData . . . . . LABEL ---  PROTOCOL  
Protocol_CounterMsg. . . . . . . . LABEL ---  PROTOCOL  PROCESS  
Protocol_DoseRateMsg . . . . . . . LABEL ---  PROTOCOL  PROCESS  
Protocol_GetAutoModeState. . . . . LABEL ---  PROTOCOL  PROCESS  
Protocol_GetDataMsg. . . . . . . . LABEL ---  PROTOCOL  
Protocol_GetRangeValue . . . . . . LABEL ---  PROTOCOL  PROCESS  
Protocol_HeaderDataMsg . . . . . . LABEL ---  PROTOCOL  PROCESS  
Protocol_Initialization. . . . . . LABEL ---  PROTOCOL  MAIN  
Protocol_ReceiveMsgCallback. . . . LABEL ---  PROTOCOL  CAN  
Protocol_ResponseDataPackaje . . . LABEL ---  PROTOCOL  PROCESS  
Protocol_SendDataMsg . . . . . . . LABEL ---  PROTOCOL  
Protocol_SetRangeValue . . . . . . LABEL ---  PROTOCOL  PROCESS  
Protocol_StartMsg. . . . . . . . . LABEL ---  PROTOCOL  MAIN  
Protocol_TransmitMsgCallback . . . LABEL ---  PROTOCOL  
L166 LINKER/LOCATER V5.25                                                             04/03/2017  17:18:59  PAGE 44


Protocol_WDTRestartMsg . . . . . . LABEL ---  PROTOCOL  MAIN  
SETTINGS_Default . . . . . . . . . LABEL ---  SETTINGS  
SETTINGS_Init. . . . . . . . . . . LABEL ---  SETTINGS  MAIN  
SETTINGS_Load. . . . . . . . . . . LABEL ---  SETTINGS  
SETTINGS_Save. . . . . . . . . . . LABEL ---  SETTINGS  PROTOCOL  
SerialNumberBD . . . . . . . . . . VAR   ---  MAIN  CAN  
System_Delay . . . . . . . . . . . LABEL ---  SYSTEM  CAN  
System_RAMTest . . . . . . . . . . LABEL ---  SYSTEM  
System_Reset . . . . . . . . . . . LABEL ---  SYSTEM  PROTOCOL  
__mp__ . . . . . . . . . . . . . . VAR   ---  INIT_MEM  FREE  MALLOC  
autoMode . . . . . . . . . . . . . VAR   ---  PROTOCOL  
dynamicMode. . . . . . . . . . . . VAR   ---  PROCESS  
free . . . . . . . . . . . . . . . LABEL ---  FREE  CAN  
init_mempool . . . . . . . . . . . LABEL ---  INIT_MEM  MAIN  
mResetResponse . . . . . . . . . . VAR   ---  PROTOCOL  
mWDTRestartResponse. . . . . . . . VAR   ---  PROTOCOL  
main . . . . . . . . . . . . . . . LABEL ---  MAIN  ?C_STARTUP  
malloc . . . . . . . . . . . . . . LABEL ---  MALLOC  CAN  
malloc_mempool . . . . . . . . . . VAR   ---  MAIN  
memcpy . . . . . . . . . . . . . . LABEL ---  MEMCPY  CAN  PROCESS  PROTOCOL  
memset . . . . . . . . . . . . . . LABEL ---  MEMSET  PROCESS  PROTOCOL  
rangeValue . . . . . . . . . . . . VAR   ---  PROTOCOL  
sensorCnt. . . . . . . . . . . . . VAR   ---  PROCESS  
sliderCounter. . . . . . . . . . . VAR   ---  PROCESS  
sliderQuery. . . . . . . . . . . . VAR   ---  PROCESS  
timeSpan . . . . . . . . . . . . . VAR   ---  PROTOCOL  
xmemset. . . . . . . . . . . . . . LABEL ---  XMEMSET  SYSTEM  

Program Size: data=5342(near=5342) const=65(near=13) code=8880
L166 RUN COMPLETE.  0 WARNING(S),  0 ERROR(S)
